(lp0
(lp1
(lp2
I2
aI2
aI4
aI2
aI1
aI2
aa(lp3
I3
aI0
aI2
aI6
aI0
aI0
aa(lp4
I3
aI3
aI3
aI4
aI2
aI1
aa(lp5
I3
aI3
aI4
aI4
aI1
aI1
aa(lp6
I0
aI2
aI3
aI6
aI1
aI1
aa(lp7
I2
aI2
aI2
aI2
aI1
aI2
aa(lp8
I2
aI1
aI2
aI2
aI1
aI1
aa(lp9
I0
aI1
aI5
aI6
aI2
aI1
aa(lp10
I1
aI2
aI4
aI6
aI0
aI1
aa(lp11
I1
aI3
aI5
aI6
aI0
aI1
aa(lp12
I2
aI1
aI3
aI6
aI1
aI2
aa(lp13
I2
aI1
aI5
aI6
aI2
aI0
aa(lp14
I0
aI0
aI2
aI6
aI2
aI1
aa(lp15
I3
aI2
aI4
aI4
aI0
aI0
aa(lp16
I0
aI1
aI2
aI4
aI1
aI1
aa(lp17
I3
aI0
aI3
aI6
aI1
aI0
aa(lp18
I1
aI0
aI4
aI2
aI1
aI1
aa(lp19
I1
aI1
aI4
aI4
aI0
aI1
aa(lp20
I1
aI2
aI4
aI4
aI0
aI0
aa(lp21
I2
aI0
aI5
aI2
aI2
aI1
aa(lp22
I3
aI0
aI4
aI6
aI1
aI1
aa(lp23
I0
aI3
aI2
aI6
aI2
aI2
aa(lp24
I0
aI3
aI4
aI4
aI1
aI0
aa(lp25
I0
aI2
aI2
aI6
aI0
aI0
aa(lp26
I0
aI1
aI3
aI6
aI1
aI1
aa(lp27
I1
aI3
aI5
aI2
aI1
aI1
aa(lp28
I1
aI3
aI4
aI4
aI2
aI1
aa(lp29
I0
aI0
aI5
aI4
aI0
aI0
aa(lp30
I1
aI0
aI4
aI2
aI1
aI2
aa(lp31
I1
aI3
aI3
aI4
aI0
aI1
aa(lp32
I2
aI3
aI3
aI6
aI0
aI1
aa(lp33
I1
aI0
aI3
aI2
aI2
aI0
aa(lp34
I0
aI0
aI3
aI6
aI2
aI0
aa(lp35
I3
aI2
aI2
aI4
aI2
aI1
aa(lp36
I1
aI3
aI5
aI2
aI0
aI2
aa(lp37
I3
aI3
aI5
aI6
aI0
aI0
aa(lp38
I0
aI1
aI2
aI4
aI2
aI0
aa(lp39
I0
aI1
aI4
aI6
aI0
aI2
aa(lp40
I0
aI3
aI2
aI4
aI1
aI0
aa(lp41
I1
aI1
aI2
aI4
aI1
aI0
aa(lp42
I1
aI1
aI4
aI4
aI1
aI0
aa(lp43
I2
aI2
aI3
aI2
aI2
aI2
aa(lp44
I2
aI0
aI5
aI6
aI1
aI1
aa(lp45
I0
aI2
aI4
aI4
aI2
aI0
aa(lp46
I0
aI0
aI5
aI2
aI1
aI1
aa(lp47
I2
aI2
aI2
aI2
aI2
aI2
aa(lp48
I0
aI0
aI5
aI2
aI2
aI1
aa(lp49
I3
aI2
aI4
aI2
aI2
aI1
aa(lp50
I3
aI3
aI3
aI2
aI2
aI2
aa(lp51
I3
aI2
aI4
aI6
aI1
aI1
aa(lp52
I1
aI3
aI5
aI4
aI2
aI2
aa(lp53
I0
aI1
aI2
aI2
aI2
aI1
aa(lp54
I0
aI2
aI3
aI6
aI0
aI0
aa(lp55
I1
aI3
aI2
aI4
aI1
aI2
aa(lp56
I0
aI0
aI3
aI2
aI0
aI0
aa(lp57
I2
aI1
aI3
aI4
aI2
aI1
aa(lp58
I1
aI0
aI2
aI4
aI0
aI1
aa(lp59
I1
aI1
aI4
aI4
aI2
aI1
aa(lp60
I3
aI2
aI4
aI2
aI2
aI0
aa(lp61
I3
aI2
aI5
aI2
aI1
aI1
aa(lp62
I2
aI0
aI3
aI2
aI0
aI1
aa(lp63
I0
aI1
aI3
aI4
aI2
aI1
aa(lp64
I1
aI2
aI4
aI4
aI2
aI2
aa(lp65
I3
aI0
aI4
aI2
aI2
aI0
aa(lp66
I1
aI3
aI4
aI2
aI0
aI2
aa(lp67
I2
aI1
aI4
aI2
aI0
aI1
aa(lp68
I1
aI2
aI3
aI2
aI0
aI1
aa(lp69
I0
aI0
aI3
aI4
aI0
aI2
aa(lp70
I0
aI1
aI5
aI6
aI1
aI1
aa(lp71
I0
aI3
aI3
aI4
aI0
aI1
aa(lp72
I0
aI1
aI4
aI2
aI2
aI1
aa(lp73
I2
aI2
aI3
aI4
aI1
aI2
aa(lp74
I2
aI1
aI3
aI2
aI1
aI0
aa(lp75
I0
aI0
aI5
aI6
aI1
aI0
aa(lp76
I3
aI3
aI2
aI4
aI1
aI0
aa(lp77
I0
aI3
aI5
aI6
aI2
aI1
aa(lp78
I0
aI0
aI5
aI2
aI0
aI1
aa(lp79
I2
aI0
aI3
aI4
aI0
aI0
aa(lp80
I1
aI3
aI4
aI6
aI1
aI0
aa(lp81
I0
aI3
aI5
aI2
aI0
aI2
aa(lp82
I2
aI0
aI2
aI6
aI0
aI1
aa(lp83
I2
aI2
aI5
aI2
aI1
aI2
aa(lp84
I0
aI1
aI5
aI4
aI0
aI0
aa(lp85
I0
aI2
aI4
aI4
aI1
aI0
aa(lp86
I0
aI3
aI3
aI2
aI1
aI2
aa(lp87
I2
aI0
aI2
aI4
aI2
aI2
aa(lp88
I2
aI1
aI4
aI6
aI0
aI0
aa(lp89
I0
aI0
aI5
aI4
aI1
aI2
aa(lp90
I0
aI2
aI2
aI2
aI1
aI2
aa(lp91
I2
aI2
aI5
aI2
aI1
aI1
aa(lp92
I2
aI2
aI4
aI2
aI1
aI1
aa(lp93
I2
aI2
aI2
aI4
aI1
aI0
aa(lp94
I3
aI3
aI2
aI4
aI1
aI1
aa(lp95
I3
aI0
aI3
aI2
aI1
aI0
aa(lp96
I2
aI2
aI5
aI4
aI2
aI0
aa(lp97
I2
aI0
aI3
aI6
aI1
aI2
aa(lp98
I2
aI3
aI2
aI2
aI0
aI0
aa(lp99
I2
aI3
aI2
aI6
aI2
aI2
aa(lp100
I1
aI1
aI2
aI4
aI1
aI1
aa(lp101
I3
aI0
aI2
aI4
aI1
aI1
aa(lp102
I3
aI1
aI2
aI6
aI0
aI2
aa(lp103
I2
aI1
aI4
aI4
aI1
aI2
aa(lp104
I1
aI2
aI2
aI6
aI0
aI2
aa(lp105
I2
aI2
aI5
aI4
aI0
aI2
aa(lp106
I1
aI2
aI3
aI6
aI0
aI1
aa(lp107
I2
aI1
aI5
aI4
aI2
aI0
aa(lp108
I0
aI1
aI5
aI6
aI1
aI2
aa(lp109
I2
aI3
aI2
aI4
aI0
aI0
aa(lp110
I3
aI0
aI2
aI6
aI2
aI2
aa(lp111
I3
aI2
aI3
aI6
aI2
aI0
aa(lp112
I0
aI2
aI5
aI2
aI0
aI1
aa(lp113
I0
aI1
aI4
aI4
aI0
aI2
aa(lp114
I3
aI3
aI4
aI6
aI1
aI2
aa(lp115
I3
aI3
aI4
aI2
aI0
aI0
aa(lp116
I3
aI2
aI2
aI4
aI0
aI2
aa(lp117
I0
aI3
aI5
aI6
aI2
aI0
aa(lp118
I1
aI1
aI5
aI4
aI1
aI2
aa(lp119
I0
aI3
aI3
aI6
aI2
aI0
aa(lp120
I3
aI0
aI4
aI6
aI2
aI2
aa(lp121
I0
aI3
aI4
aI2
aI0
aI0
aa(lp122
I1
aI3
aI2
aI4
aI0
aI1
aa(lp123
I3
aI2
aI4
aI4
aI1
aI1
aa(lp124
I1
aI1
aI5
aI4
aI0
aI0
aa(lp125
I1
aI0
aI3
aI4
aI1
aI2
aa(lp126
I3
aI1
aI4
aI6
aI1
aI2
aa(lp127
I2
aI1
aI4
aI4
aI1
aI0
aa(lp128
I1
aI2
aI3
aI4
aI2
aI0
aa(lp129
I1
aI0
aI5
aI2
aI1
aI1
aa(lp130
I2
aI3
aI3
aI4
aI0
aI2
aa(lp131
I2
aI1
aI3
aI2
aI0
aI0
aa(lp132
I3
aI0
aI4
aI2
aI1
aI2
aa(lp133
I2
aI0
aI5
aI6
aI2
aI1
aa(lp134
I1
aI3
aI2
aI2
aI1
aI0
aa(lp135
I2
aI2
aI4
aI6
aI1
aI1
aa(lp136
I1
aI1
aI5
aI2
aI1
aI1
aa(lp137
I2
aI0
aI3
aI6
aI2
aI1
aa(lp138
I2
aI1
aI2
aI4
aI2
aI1
aa(lp139
I1
aI2
aI4
aI4
aI0
aI1
aa(lp140
I0
aI0
aI2
aI4
aI0
aI2
aa(lp141
I3
aI0
aI5
aI2
aI1
aI0
aa(lp142
I0
aI1
aI3
aI6
aI2
aI2
aa(lp143
I1
aI1
aI5
aI2
aI0
aI2
aa(lp144
I3
aI0
aI2
aI2
aI0
aI2
aa(lp145
I3
aI2
aI2
aI4
aI2
aI0
aa(lp146
I2
aI2
aI5
aI6
aI1
aI1
aa(lp147
I2
aI0
aI4
aI4
aI1
aI0
aa(lp148
I1
aI2
aI2
aI6
aI2
aI0
aa(lp149
I0
aI1
aI5
aI6
aI2
aI0
aa(lp150
I3
aI0
aI2
aI4
aI1
aI2
aa(lp151
I1
aI0
aI3
aI6
aI1
aI2
aa(lp152
I2
aI3
aI2
aI6
aI2
aI1
aa(lp153
I3
aI1
aI5
aI4
aI1
aI0
aa(lp154
I1
aI1
aI4
aI4
aI2
aI2
aa(lp155
I3
aI3
aI2
aI2
aI1
aI0
aa(lp156
I0
aI2
aI2
aI2
aI0
aI1
aa(lp157
I0
aI3
aI3
aI2
aI1
aI1
aa(lp158
I0
aI2
aI4
aI2
aI2
aI0
aa(lp159
I2
aI2
aI5
aI2
aI2
aI1
aa(lp160
I1
aI3
aI2
aI2
aI0
aI2
aa(lp161
I2
aI2
aI3
aI2
aI0
aI0
aa(lp162
I1
aI3
aI4
aI2
aI2
aI0
aa(lp163
I0
aI2
aI2
aI6
aI2
aI0
aa(lp164
I2
aI3
aI5
aI2
aI1
aI2
aa(lp165
I1
aI2
aI2
aI4
aI1
aI2
aa(lp166
I1
aI0
aI2
aI4
aI0
aI2
aa(lp167
I1
aI2
aI5
aI6
aI1
aI2
aa(lp168
I0
aI3
aI2
aI6
aI2
aI1
aa(lp169
I0
aI3
aI4
aI6
aI0
aI0
aa(lp170
I1
aI2
aI5
aI4
aI1
aI1
aa(lp171
I1
aI0
aI3
aI4
aI1
aI1
aa(lp172
I0
aI0
aI2
aI6
aI2
aI0
aa(lp173
I2
aI1
aI4
aI2
aI1
aI0
aa(lp174
I2
aI0
aI4
aI6
aI1
aI2
aa(lp175
I0
aI2
aI3
aI2
aI2
aI0
aa(lp176
I1
aI1
aI3
aI2
aI0
aI2
aa(lp177
I2
aI2
aI3
aI2
aI2
aI1
aa(lp178
I3
aI0
aI5
aI6
aI0
aI1
aa(lp179
I3
aI0
aI4
aI2
aI1
aI0
aa(lp180
I2
aI3
aI2
aI4
aI1
aI1
aa(lp181
I0
aI3
aI2
aI2
aI2
aI2
aa(lp182
I2
aI0
aI3
aI4
aI1
aI1
aa(lp183
I3
aI1
aI4
aI2
aI1
aI1
aa(lp184
I3
aI0
aI3
aI2
aI2
aI0
aa(lp185
I1
aI2
aI3
aI4
aI0
aI2
aa(lp186
I2
aI1
aI4
aI6
aI0
aI1
aa(lp187
I0
aI2
aI5
aI2
aI0
aI0
aa(lp188
I0
aI2
aI2
aI2
aI2
aI1
aa(lp189
I0
aI1
aI5
aI4
aI2
aI1
aa(lp190
I1
aI2
aI5
aI6
aI2
aI2
aa(lp191
I3
aI1
aI3
aI6
aI1
aI1
aa(lp192
I2
aI2
aI5
aI4
aI0
aI1
aa(lp193
I2
aI0
aI3
aI2
aI1
aI0
aa(lp194
I1
aI1
aI3
aI4
aI2
aI0
aa(lp195
I1
aI0
aI3
aI4
aI2
aI1
aa(lp196
I0
aI0
aI3
aI6
aI1
aI1
aa(lp197
I1
aI3
aI4
aI6
aI0
aI2
aa(lp198
I0
aI3
aI4
aI2
aI1
aI2
aa(lp199
I3
aI3
aI3
aI2
aI2
aI1
aa(lp200
I0
aI3
aI4
aI4
aI2
aI0
aa(lp201
I2
aI1
aI5
aI4
aI0
aI2
aa(lp202
I3
aI2
aI2
aI4
aI1
aI2
aa(lp203
I0
aI1
aI4
aI6
aI0
aI1
aa(lp204
I1
aI3
aI3
aI2
aI2
aI0
aa(lp205
I0
aI3
aI4
aI2
aI0
aI2
aa(lp206
I0
aI0
aI4
aI6
aI1
aI2
aa(lp207
I0
aI0
aI5
aI6
aI1
aI1
aa(lp208
I3
aI3
aI3
aI4
aI0
aI0
aa(lp209
I2
aI0
aI3
aI4
aI2
aI1
aa(lp210
I1
aI3
aI5
aI6
aI2
aI1
aa(lp211
I3
aI1
aI3
aI4
aI1
aI2
aa(lp212
I0
aI1
aI2
aI4
aI0
aI1
aa(lp213
I2
aI2
aI4
aI4
aI1
aI0
aa(lp214
I1
aI0
aI3
aI4
aI0
aI2
aa(lp215
I1
aI1
aI2
aI4
aI2
aI1
aa(lp216
I3
aI1
aI4
aI4
aI0
aI1
aa(lp217
I3
aI2
aI3
aI4
aI2
aI2
aa(lp218
I0
aI2
aI3
aI4
aI0
aI1
aa(lp219
I1
aI0
aI3
aI2
aI2
aI1
aa(lp220
I2
aI3
aI3
aI4
aI1
aI2
aa(lp221
I1
aI0
aI3
aI4
aI0
aI0
aa(lp222
I1
aI2
aI5
aI6
aI2
aI1
aa(lp223
I2
aI1
aI4
aI2
aI1
aI2
aa(lp224
I1
aI2
aI5
aI6
aI2
aI0
aa(lp225
I3
aI2
aI3
aI2
aI1
aI1
aa(lp226
I0
aI0
aI2
aI2
aI2
aI1
aa(lp227
I2
aI2
aI2
aI4
aI0
aI2
aa(lp228
I1
aI3
aI4
aI2
aI2
aI1
aa(lp229
I2
aI0
aI2
aI4
aI1
aI0
aa(lp230
I2
aI0
aI2
aI6
aI1
aI1
aa(lp231
I3
aI0
aI2
aI4
aI2
aI2
aa(lp232
I2
aI2
aI3
aI4
aI0
aI2
aa(lp233
I0
aI0
aI3
aI4
aI2
aI1
aa(lp234
I3
aI1
aI3
aI6
aI1
aI0
aa(lp235
I1
aI3
aI4
aI6
aI1
aI1
aa(lp236
I2
aI1
aI5
aI4
aI1
aI0
aa(lp237
I1
aI2
aI5
aI6
aI0
aI2
aa(lp238
I2
aI1
aI2
aI6
aI0
aI2
aa(lp239
I0
aI3
aI4
aI4
aI1
aI2
aa(lp240
I3
aI1
aI2
aI4
aI1
aI1
aa(lp241
I0
aI3
aI4
aI4
aI1
aI1
aa(lp242
I3
aI2
aI2
aI4
aI1
aI1
aa(lp243
I3
aI3
aI4
aI2
aI0
aI1
aa(lp244
I3
aI0
aI3
aI2
aI0
aI0
aa(lp245
I0
aI1
aI4
aI4
aI2
aI1
aa(lp246
I0
aI0
aI3
aI2
aI1
aI0
aa(lp247
I0
aI3
aI2
aI6
aI1
aI1
aa(lp248
I3
aI2
aI5
aI4
aI2
aI0
aa(lp249
I2
aI3
aI3
aI6
aI0
aI2
aa(lp250
I3
aI0
aI3
aI4
aI0
aI0
aa(lp251
I3
aI3
aI4
aI4
aI1
aI2
aa(lp252
I2
aI2
aI2
aI4
aI0
aI0
aa(lp253
I0
aI3
aI5
aI6
aI0
aI0
aa(lp254
I2
aI1
aI2
aI6
aI1
aI0
aa(lp255
I3
aI1
aI5
aI4
aI0
aI0
aa(lp256
I0
aI1
aI3
aI4
aI2
aI0
aa(lp257
I0
aI1
aI3
aI2
aI0
aI2
aa(lp258
I2
aI3
aI5
aI6
aI2
aI1
aa(lp259
I2
aI3
aI2
aI4
aI2
aI1
aa(lp260
I2
aI1
aI4
aI6
aI2
aI2
aa(lp261
I2
aI0
aI3
aI2
aI2
aI0
aa(lp262
I1
aI1
aI5
aI2
aI0
aI1
aa(lp263
I1
aI2
aI3
aI6
aI1
aI0
aa(lp264
I1
aI2
aI3
aI2
aI1
aI0
aa(lp265
I0
aI0
aI2
aI6
aI0
aI2
aa(lp266
I2
aI1
aI4
aI4
aI2
aI2
aa(lp267
I3
aI2
aI4
aI6
aI2
aI0
aa(lp268
I2
aI1
aI5
aI2
aI0
aI0
aa(lp269
I3
aI2
aI3
aI2
aI2
aI2
aa(lp270
I2
aI3
aI2
aI2
aI2
aI1
aa(lp271
I2
aI3
aI3
aI2
aI1
aI1
aa(lp272
I3
aI2
aI5
aI6
aI1
aI0
aa(lp273
I0
aI2
aI5
aI4
aI0
aI0
aa(lp274
I3
aI1
aI4
aI4
aI0
aI0
aa(lp275
I2
aI0
aI2
aI2
aI1
aI0
aa(lp276
I2
aI2
aI2
aI2
aI1
aI1
aa(lp277
I3
aI2
aI5
aI4
aI1
aI2
aa(lp278
I3
aI3
aI5
aI6
aI2
aI0
aa(lp279
I1
aI1
aI3
aI6
aI2
aI2
aa(lp280
I1
aI3
aI5
aI6
aI2
aI2
aa(lp281
I1
aI1
aI5
aI6
aI2
aI2
aa(lp282
I3
aI3
aI2
aI2
aI0
aI1
aa(lp283
I3
aI0
aI4
aI6
aI1
aI2
aa(lp284
I0
aI1
aI4
aI4
aI1
aI1
aa(lp285
I3
aI0
aI3
aI4
aI2
aI1
aa(lp286
I0
aI1
aI3
aI6
aI0
aI2
aa(lp287
I2
aI3
aI5
aI6
aI2
aI2
aa(lp288
I1
aI1
aI2
aI4
aI1
aI2
aa(lp289
I3
aI3
aI4
aI6
aI1
aI1
aa(lp290
I3
aI2
aI3
aI6
aI2
aI2
aa(lp291
I3
aI1
aI4
aI2
aI2
aI0
aa(lp292
I2
aI3
aI4
aI6
aI2
aI1
aa(lp293
I3
aI0
aI5
aI6
aI1
aI1
aa(lp294
I3
aI0
aI5
aI2
aI2
aI2
aa(lp295
I2
aI0
aI4
aI2
aI1
aI0
aa(lp296
I1
aI2
aI5
aI6
aI1
aI1
aa(lp297
I1
aI0
aI2
aI2
aI1
aI0
aa(lp298
I2
aI2
aI5
aI2
aI0
aI0
aa(lp299
I2
aI1
aI4
aI6
aI1
aI0
aa(lp300
I0
aI3
aI2
aI2
aI1
aI2
aa(lp301
I1
aI2
aI3
aI2
aI2
aI1
aa(lp302
I3
aI3
aI5
aI2
aI0
aI1
aa(lp303
I2
aI0
aI3
aI6
aI2
aI0
aa(lp304
I1
aI1
aI3
aI4
aI0
aI0
aa(lp305
I1
aI2
aI5
aI4
aI0
aI2
aa(lp306
I2
aI2
aI3
aI2
aI1
aI2
aa(lp307
I1
aI0
aI5
aI2
aI2
aI0
aa(lp308
I3
aI1
aI3
aI6
aI2
aI1
aa(lp309
I0
aI2
aI3
aI4
aI1
aI0
aa(lp310
I2
aI0
aI4
aI4
aI2
aI2
aa(lp311
I1
aI2
aI2
aI4
aI1
aI1
aa(lp312
I0
aI2
aI2
aI4
aI0
aI0
aa(lp313
I1
aI2
aI4
aI4
aI1
aI2
aa(lp314
I3
aI0
aI5
aI4
aI0
aI2
aa(lp315
I0
aI0
aI4
aI6
aI0
aI0
aa(lp316
I0
aI0
aI4
aI4
aI0
aI1
aa(lp317
I1
aI3
aI4
aI2
aI1
aI0
aa(lp318
I2
aI0
aI4
aI6
aI1
aI0
aa(lp319
I0
aI2
aI5
aI6
aI2
aI2
aa(lp320
I1
aI1
aI5
aI6
aI0
aI1
aa(lp321
I1
aI1
aI2
aI2
aI1
aI2
aa(lp322
I2
aI1
aI2
aI2
aI1
aI2
aa(lp323
I2
aI1
aI2
aI2
aI2
aI0
aa(lp324
I2
aI0
aI3
aI4
aI0
aI2
aa(lp325
I0
aI0
aI4
aI6
aI0
aI1
aa(lp326
I1
aI2
aI3
aI2
aI0
aI0
aa(lp327
I2
aI3
aI5
aI6
aI1
aI0
aa(lp328
I3
aI0
aI5
aI2
aI1
aI2
aa(lp329
I2
aI1
aI5
aI2
aI0
aI2
aa(lp330
I2
aI1
aI4
aI6
aI0
aI2
aa(lp331
I0
aI2
aI5
aI4
aI1
aI1
aa(lp332
I3
aI0
aI2
aI4
aI2
aI0
aa(lp333
I1
aI0
aI3
aI2
aI2
aI2
aa(lp334
I0
aI3
aI4
aI2
aI2
aI1
aa(lp335
I3
aI1
aI3
aI4
aI2
aI1
aa(lp336
I3
aI2
aI3
aI4
aI0
aI0
aa(lp337
I2
aI3
aI4
aI2
aI1
aI2
aa(lp338
I1
aI1
aI3
aI6
aI0
aI2
aa(lp339
I1
aI3
aI5
aI4
aI2
aI0
aa(lp340
I2
aI0
aI3
aI6
aI1
aI1
aa(lp341
I3
aI0
aI5
aI6
aI0
aI0
aa(lp342
I0
aI3
aI5
aI4
aI0
aI1
aa(lp343
I0
aI2
aI4
aI4
aI1
aI2
aa(lp344
I1
aI0
aI4
aI2
aI2
aI1
aa(lp345
I1
aI2
aI4
aI4
aI1
aI1
aa(lp346
I2
aI1
aI2
aI2
aI2
aI2
aa(lp347
I2
aI2
aI3
aI2
aI1
aI1
aa(lp348
I0
aI3
aI2
aI4
aI2
aI1
aa(lp349
I1
aI0
aI3
aI4
aI2
aI2
aa(lp350
I2
aI1
aI5
aI2
aI1
aI0
aa(lp351
I1
aI1
aI4
aI2
aI0
aI0
aa(lp352
I3
aI3
aI2
aI6
aI2
aI0
aa(lp353
I3
aI3
aI2
aI2
aI0
aI2
aa(lp354
I3
aI0
aI3
aI2
aI1
aI2
aa(lp355
I1
aI0
aI4
aI6
aI1
aI1
aa(lp356
I3
aI1
aI5
aI2
aI1
aI0
aa(lp357
I0
aI0
aI3
aI2
aI1
aI2
aa(lp358
I3
aI2
aI4
aI4
aI2
aI2
aa(lp359
I0
aI2
aI2
aI2
aI2
aI2
aa(lp360
I0
aI0
aI4
aI4
aI2
aI2
aa(lp361
I1
aI3
aI3
aI4
aI1
aI0
aa(lp362
I2
aI2
aI5
aI6
aI2
aI1
aa(lp363
I1
aI3
aI5
aI4
aI0
aI2
aa(lp364
I0
aI0
aI4
aI2
aI0
aI0
aa(lp365
I2
aI3
aI5
aI4
aI2
aI0
aa(lp366
I0
aI0
aI4
aI2
aI1
aI2
aa(lp367
I3
aI3
aI4
aI2
aI0
aI2
aa(lp368
I1
aI1
aI5
aI2
aI2
aI1
aa(lp369
I0
aI2
aI2
aI6
aI2
aI1
aa(lp370
I3
aI0
aI5
aI2
aI2
aI1
aa(lp371
I0
aI0
aI4
aI4
aI0
aI2
aa(lp372
I0
aI2
aI3
aI2
aI1
aI1
aa(lp373
I1
aI0
aI5
aI2
aI0
aI1
aa(lp374
I2
aI3
aI3
aI6
aI2
aI0
aa(lp375
I2
aI2
aI4
aI2
aI2
aI2
aa(lp376
I1
aI1
aI2
aI6
aI1
aI1
aa(lp377
I3
aI1
aI4
aI4
aI1
aI0
aa(lp378
I3
aI0
aI2
aI6
aI0
aI1
aa(lp379
I2
aI2
aI4
aI2
aI0
aI2
aa(lp380
I1
aI1
aI3
aI6
aI0
aI1
aa(lp381
I0
aI3
aI4
aI6
aI2
aI2
aa(lp382
I0
aI2
aI4
aI2
aI1
aI0
aa(lp383
I1
aI3
aI3
aI4
aI0
aI0
aa(lp384
I3
aI2
aI5
aI4
aI2
aI1
aa(lp385
I1
aI0
aI3
aI2
aI1
aI2
aa(lp386
I0
aI1
aI2
aI2
aI0
aI1
aa(lp387
I0
aI3
aI5
aI2
aI0
aI1
aa(lp388
I1
aI0
aI3
aI6
aI0
aI0
aa(lp389
I1
aI3
aI4
aI4
aI0
aI0
aa(lp390
I2
aI3
aI2
aI4
aI0
aI2
aa(lp391
I3
aI1
aI3
aI2
aI1
aI0
aa(lp392
I2
aI1
aI3
aI2
aI1
aI2
aa(lp393
I0
aI0
aI5
aI2
aI1
aI0
aa(lp394
I2
aI1
aI2
aI6
aI0
aI0
aa(lp395
I3
aI1
aI2
aI6
aI0
aI1
aa(lp396
I2
aI0
aI4
aI2
aI0
aI0
aa(lp397
I1
aI1
aI2
aI4
aI0
aI0
aa(lp398
I1
aI2
aI4
aI6
aI1
aI0
aa(lp399
I1
aI0
aI4
aI4
aI1
aI0
aa(lp400
I3
aI3
aI2
aI4
aI0
aI2
aa(lp401
I0
aI2
aI2
aI4
aI1
aI0
aa(lp402
I2
aI2
aI3
aI4
aI1
aI0
aa(lp403
I1
aI2
aI2
aI2
aI2
aI0
aa(lp404
I3
aI1
aI4
aI6
aI2
aI2
aa(lp405
I0
aI2
aI5
aI6
aI2
aI0
aa(lp406
I1
aI2
aI5
aI2
aI2
aI1
aa(lp407
I2
aI3
aI5
aI4
aI1
aI2
aa(lp408
I2
aI2
aI2
aI6
aI0
aI0
aa(lp409
I0
aI3
aI5
aI4
aI1
aI1
aa(lp410
I1
aI2
aI3
aI6
aI0
aI2
aa(lp411
I1
aI2
aI2
aI4
aI2
aI1
aa(lp412
I2
aI2
aI2
aI2
aI0
aI0
aa(lp413
I2
aI2
aI4
aI2
aI1
aI0
aa(lp414
I3
aI3
aI3
aI6
aI2
aI1
aa(lp415
I3
aI3
aI3
aI2
aI1
aI0
aa(lp416
I3
aI3
aI5
aI6
aI0
aI2
aa(lp417
I3
aI2
aI3
aI2
aI0
aI1
aa(lp418
I2
aI3
aI4
aI4
aI2
aI0
aa(lp419
I3
aI1
aI3
aI6
aI1
aI2
aa(lp420
I1
aI3
aI3
aI6
aI1
aI1
aa(lp421
I2
aI0
aI5
aI4
aI2
aI2
aa(lp422
I2
aI2
aI4
aI2
aI0
aI0
aa(lp423
I2
aI3
aI3
aI6
aI1
aI2
aa(lp424
I3
aI0
aI5
aI6
aI2
aI0
aa(lp425
I0
aI3
aI3
aI4
aI2
aI1
aa(lp426
I1
aI0
aI4
aI4
aI2
aI0
aa(lp427
I0
aI3
aI3
aI4
aI2
aI2
aa(lp428
I2
aI0
aI2
aI6
aI0
aI2
aa(lp429
I1
aI2
aI2
aI2
aI0
aI2
aa(lp430
I2
aI3
aI2
aI6
aI1
aI1
aa(lp431
I3
aI2
aI2
aI2
aI0
aI0
aa(lp432
I0
aI1
aI2
aI2
aI2
aI2
aa(lp433
I2
aI0
aI2
aI2
aI2
aI2
aa(lp434
I3
aI3
aI2
aI2
aI2
aI0
aa(lp435
I0
aI1
aI3
aI4
aI1
aI0
aa(lp436
I1
aI3
aI3
aI2
aI0
aI0
aa(lp437
I1
aI1
aI3
aI4
aI1
aI1
aa(lp438
I3
aI3
aI5
aI4
aI0
aI1
aa(lp439
I0
aI2
aI2
aI4
aI0
aI1
aa(lp440
I1
aI0
aI2
aI2
aI1
aI1
aa(lp441
I0
aI2
aI2
aI4
aI1
aI1
aa(lp442
I3
aI1
aI5
aI6
aI0
aI1
aa(lp443
I3
aI1
aI4
aI4
aI2
aI1
aa(lp444
I2
aI0
aI4
aI6
aI0
aI1
aa(lp445
I1
aI0
aI2
aI4
aI1
aI1
aa(lp446
I1
aI1
aI4
aI4
aI1
aI2
aa(lp447
I2
aI3
aI2
aI2
aI1
aI2
aa(lp448
I3
aI2
aI5
aI2
aI2
aI1
aa(lp449
I2
aI2
aI2
aI2
aI2
aI1
aa(lp450
I1
aI0
aI5
aI4
aI1
aI0
aa(lp451
I3
aI1
aI5
aI4
aI1
aI2
aa(lp452
I0
aI1
aI4
aI4
aI1
aI0
aa(lp453
I3
aI2
aI4
aI2
aI1
aI1
aa(lp454
I3
aI2
aI3
aI4
aI1
aI1
aa(lp455
I1
aI3
aI2
aI2
aI2
aI0
aa(lp456
I2
aI0
aI5
aI2
aI0
aI2
aa(lp457
I2
aI3
aI4
aI6
aI2
aI2
aa(lp458
I2
aI1
aI5
aI6
aI0
aI0
aa(lp459
I3
aI0
aI5
aI6
aI0
aI2
aa(lp460
I0
aI1
aI4
aI6
aI1
aI2
aa(lp461
I2
aI0
aI5
aI4
aI2
aI0
aa(lp462
I0
aI2
aI5
aI4
aI0
aI2
aa(lp463
I1
aI3
aI4
aI6
aI2
aI1
aa(lp464
I2
aI3
aI4
aI6
aI1
aI2
aa(lp465
I3
aI0
aI4
aI6
aI0
aI0
aa(lp466
I2
aI3
aI2
aI4
aI1
aI2
aa(lp467
I0
aI2
aI4
aI2
aI2
aI2
aa(lp468
I0
aI2
aI2
aI4
aI1
aI2
aa(lp469
I1
aI3
aI5
aI2
aI0
aI0
aa(lp470
I1
aI3
aI4
aI2
aI1
aI1
aa(lp471
I2
aI1
aI4
aI2
aI2
aI0
aa(lp472
I2
aI3
aI3
aI2
aI1
aI0
aa(lp473
I0
aI3
aI3
aI6
aI1
aI1
aa(lp474
I2
aI0
aI3
aI2
aI1
aI2
aa(lp475
I0
aI1
aI2
aI4
aI2
aI1
aa(lp476
I0
aI3
aI2
aI4
aI0
aI2
aa(lp477
I2
aI2
aI5
aI2
aI2
aI0
aa(lp478
I1
aI1
aI4
aI2
aI2
aI0
aa(lp479
I1
aI3
aI4
aI2
aI0
aI1
aa(lp480
I3
aI2
aI3
aI6
aI2
aI1
aa(lp481
I2
aI2
aI3
aI4
aI1
aI1
aa(lp482
I3
aI1
aI5
aI2
aI2
aI0
aa(lp483
I3
aI0
aI5
aI6
aI1
aI2
aa(lp484
I2
aI2
aI5
aI4
aI1
aI0
aa(lp485
I1
aI3
aI4
aI2
aI1
aI2
aa(lp486
I0
aI2
aI4
aI6
aI1
aI1
aa(lp487
I2
aI3
aI2
aI2
aI1
aI0
aa(lp488
I3
aI0
aI4
aI6
aI0
aI2
aa(lp489
I1
aI3
aI3
aI6
aI2
aI1
aa(lp490
I3
aI0
aI2
aI6
aI1
aI1
aa(lp491
I2
aI3
aI3
aI6
aI2
aI2
aa(lp492
I2
aI2
aI2
aI2
aI0
aI1
aa(lp493
I3
aI0
aI3
aI4
aI2
aI2
aa(lp494
I3
aI2
aI5
aI6
aI1
aI2
aa(lp495
I1
aI0
aI5
aI4
aI1
aI2
aa(lp496
I2
aI0
aI2
aI4
aI1
aI1
aa(lp497
I1
aI3
aI3
aI4
aI2
aI1
aa(lp498
I3
aI1
aI3
aI4
aI2
aI2
aa(lp499
I2
aI2
aI3
aI2
aI0
aI1
aa(lp500
I0
aI0
aI5
aI2
aI1
aI2
aa(lp501
I2
aI2
aI2
aI6
aI1
aI1
aa(lp502
I2
aI2
aI5
aI4
aI1
aI1
aa(lp503
I2
aI1
aI5
aI2
aI0
aI1
aa(lp504
I2
aI1
aI3
aI4
aI2
aI0
aa(lp505
I1
aI2
aI2
aI6
aI2
aI2
aa(lp506
I2
aI1
aI3
aI2
aI2
aI0
aa(lp507
I3
aI3
aI2
aI4
aI2
aI1
aa(lp508
I3
aI3
aI3
aI4
aI0
aI2
aa(lp509
I1
aI0
aI4
aI6
aI0
aI0
aa(lp510
I3
aI0
aI3
aI6
aI2
aI2
aa(lp511
I1
aI0
aI4
aI6
aI1
aI0
aa(lp512
I0
aI3
aI3
aI2
aI2
aI1
aa(lp513
I2
aI0
aI4
aI6
aI2
aI2
aa(lp514
I1
aI3
aI3
aI4
aI1
aI2
aa(lp515
I2
aI2
aI5
aI6
aI1
aI2
aa(lp516
I3
aI3
aI3
aI6
aI1
aI1
aa(lp517
I1
aI2
aI5
aI6
aI1
aI0
aa(lp518
I0
aI1
aI4
aI4
aI0
aI0
aa(lp519
I3
aI3
aI2
aI6
aI1
aI1
aa(lp520
I3
aI1
aI2
aI6
aI0
aI0
aa(lp521
I0
aI0
aI3
aI4
aI1
aI2
aa(lp522
I1
aI3
aI2
aI6
aI1
aI2
aa(lp523
I3
aI3
aI5
aI2
aI2
aI1
aa(lp524
I2
aI3
aI4
aI2
aI1
aI0
aa(lp525
I3
aI2
aI2
aI2
aI0
aI2
aa(lp526
I2
aI2
aI3
aI6
aI1
aI0
aa(lp527
I0
aI3
aI5
aI2
aI2
aI0
aa(lp528
I3
aI3
aI4
aI2
aI1
aI1
aa(lp529
I3
aI1
aI5
aI6
aI1
aI1
aa(lp530
I2
aI0
aI5
aI6
aI1
aI0
aa(lp531
I0
aI2
aI3
aI4
aI0
aI0
aa(lp532
I3
aI1
aI4
aI4
aI1
aI2
aa(lp533
I1
aI2
aI2
aI6
aI1
aI2
aa(lp534
I0
aI1
aI5
aI6
aI0
aI1
aa(lp535
I3
aI1
aI4
aI6
aI2
aI0
aa(lp536
I1
aI1
aI2
aI4
aI0
aI2
aa(lp537
I1
aI1
aI4
aI2
aI1
aI0
aa(lp538
I1
aI1
aI4
aI2
aI1
aI1
aa(lp539
I3
aI3
aI5
aI6
aI1
aI0
aa(lp540
I3
aI1
aI5
aI6
aI2
aI2
aa(lp541
I0
aI1
aI3
aI2
aI1
aI1
aa(lp542
I1
aI1
aI4
aI6
aI1
aI2
aa(lp543
I1
aI2
aI5
aI2
aI0
aI0
aa(lp544
I2
aI0
aI5
aI4
aI0
aI1
aa(lp545
I0
aI1
aI2
aI6
aI1
aI2
aa(lp546
I1
aI2
aI3
aI2
aI1
aI2
aa(lp547
I1
aI1
aI2
aI4
aI2
aI2
aa(lp548
I1
aI3
aI4
aI4
aI0
aI1
aa(lp549
I3
aI0
aI4
aI4
aI2
aI1
aa(lp550
I0
aI1
aI4
aI6
aI2
aI2
aa(lp551
I3
aI0
aI5
aI2
aI1
aI1
aa(lp552
I2
aI2
aI4
aI6
aI1
aI2
aa(lp553
I3
aI3
aI2
aI6
aI0
aI0
aa(lp554
I1
aI2
aI2
aI4
aI0
aI1
aa(lp555
I0
aI1
aI5
aI4
aI0
aI2
aa(lp556
I2
aI2
aI2
aI6
aI0
aI2
aa(lp557
I1
aI0
aI5
aI6
aI2
aI2
aa(lp558
I3
aI1
aI4
aI2
aI0
aI1
aa(lp559
I0
aI2
aI4
aI4
aI2
aI1
aa(lp560
I2
aI3
aI2
aI6
aI0
aI1
aa(lp561
I1
aI3
aI5
aI2
aI2
aI0
aa(lp562
I3
aI0
aI3
aI6
aI0
aI1
aa(lp563
I2
aI0
aI4
aI2
aI1
aI2
aa(lp564
I3
aI0
aI4
aI6
aI0
aI1
aa(lp565
I3
aI3
aI3
aI6
aI0
aI2
aa(lp566
I2
aI3
aI4
aI6
aI1
aI0
aa(lp567
I0
aI0
aI4
aI2
aI2
aI0
aa(lp568
I3
aI0
aI5
aI4
aI2
aI0
aa(lp569
I1
aI1
aI3
aI2
aI1
aI2
aa(lp570
I3
aI2
aI2
aI6
aI1
aI0
aa(lp571
I2
aI0
aI2
aI6
aI2
aI2
aa(lp572
I3
aI3
aI5
aI6
aI0
aI1
aa(lp573
I1
aI0
aI4
aI4
aI0
aI1
aa(lp574
I2
aI1
aI3
aI6
aI0
aI2
aa(lp575
I3
aI3
aI3
aI4
aI0
aI1
aa(lp576
I0
aI1
aI4
aI2
aI1
aI2
aa(lp577
I1
aI0
aI5
aI2
aI0
aI2
aa(lp578
I2
aI1
aI3
aI4
aI0
aI2
aa(lp579
I1
aI1
aI5
aI6
aI1
aI1
aa(lp580
I3
aI0
aI2
aI4
aI1
aI0
aa(lp581
I3
aI3
aI3
aI6
aI0
aI0
aa(lp582
I2
aI3
aI4
aI2
aI0
aI1
aa(lp583
I0
aI3
aI3
aI4
aI1
aI1
aa(lp584
I2
aI2
aI2
aI6
aI2
aI0
aa(lp585
I0
aI2
aI5
aI4
aI0
aI1
aa(lp586
I2
aI1
aI3
aI6
aI0
aI1
aa(lp587
I3
aI1
aI5
aI6
aI0
aI0
aa(lp588
I1
aI1
aI2
aI2
aI2
aI1
aa(lp589
I1
aI3
aI5
aI6
aI0
aI0
aa(lp590
I3
aI3
aI5
aI4
aI2
aI0
aa(lp591
I3
aI0
aI5
aI6
aI2
aI2
aa(lp592
I3
aI0
aI3
aI2
aI1
aI1
aa(lp593
I0
aI1
aI5
aI2
aI0
aI1
aa(lp594
I0
aI1
aI2
aI4
aI0
aI0
aa(lp595
I0
aI0
aI4
aI4
aI2
aI0
aa(lp596
I1
aI3
aI2
aI2
aI2
aI2
aa(lp597
I1
aI1
aI5
aI2
aI1
aI0
aa(lp598
I0
aI1
aI3
aI6
aI0
aI1
aa(lp599
I2
aI2
aI4
aI4
aI2
aI1
aa(lp600
I3
aI1
aI5
aI2
aI0
aI2
aa(lp601
I1
aI3
aI4
aI6
aI0
aI1
aa(lp602
I3
aI2
aI3
aI6
aI1
aI1
aa(lp603
I3
aI2
aI4
aI4
aI1
aI2
aa(lp604
I3
aI1
aI4
aI2
aI2
aI2
aa(lp605
I2
aI0
aI4
aI2
aI2
aI2
aa(lp606
I3
aI1
aI5
aI4
aI0
aI2
aa(lp607
I2
aI3
aI4
aI6
aI0
aI2
aa(lp608
I3
aI0
aI5
aI6
aI2
aI1
aa(lp609
I2
aI3
aI5
aI2
aI1
aI0
aa(lp610
I0
aI3
aI4
aI6
aI1
aI1
aa(lp611
I1
aI1
aI5
aI4
aI0
aI1
aa(lp612
I1
aI1
aI5
aI4
aI2
aI1
aa(lp613
I1
aI3
aI3
aI4
aI2
aI0
aa(lp614
I2
aI2
aI2
aI2
aI0
aI2
aa(lp615
I2
aI3
aI2
aI6
aI2
aI0
aa(lp616
I1
aI2
aI5
aI4
aI2
aI2
aa(lp617
I3
aI1
aI2
aI4
aI1
aI0
aa(lp618
I1
aI0
aI3
aI4
aI0
aI1
aa(lp619
I0
aI0
aI4
aI6
aI1
aI1
aa(lp620
I2
aI0
aI4
aI4
aI0
aI0
aa(lp621
I2
aI2
aI4
aI6
aI0
aI0
aa(lp622
I1
aI2
aI3
aI6
aI0
aI0
aa(lp623
I1
aI3
aI2
aI6
aI2
aI0
aa(lp624
I1
aI0
aI5
aI2
aI0
aI0
aa(lp625
I3
aI2
aI4
aI4
aI1
aI0
aa(lp626
I2
aI2
aI3
aI4
aI2
aI1
aa(lp627
I3
aI1
aI5
aI6
aI1
aI2
aa(lp628
I0
aI0
aI5
aI4
aI1
aI0
aa(lp629
I1
aI1
aI2
aI2
aI1
aI0
aa(lp630
I3
aI2
aI2
aI2
aI1
aI0
aa(lp631
I0
aI0
aI2
aI6
aI2
aI2
aa(lp632
I3
aI3
aI4
aI6
aI1
aI0
aa(lp633
I0
aI0
aI2
aI2
aI0
aI2
aa(lp634
I2
aI0
aI3
aI4
aI1
aI0
aa(lp635
I3
aI1
aI3
aI2
aI2
aI0
aa(lp636
I1
aI3
aI3
aI2
aI0
aI2
aa(lp637
I3
aI1
aI2
aI4
aI2
aI1
aa(lp638
I2
aI1
aI4
aI2
aI0
aI0
aa(lp639
I0
aI1
aI5
aI2
aI2
aI1
aa(lp640
I2
aI1
aI5
aI6
aI0
aI1
aa(lp641
I1
aI2
aI5
aI2
aI2
aI2
aa(lp642
I2
aI1
aI2
aI4
aI2
aI2
aa(lp643
I3
aI2
aI5
aI4
aI1
aI0
aa(lp644
I3
aI3
aI2
aI4
aI2
aI0
aa(lp645
I2
aI1
aI5
aI2
aI1
aI2
aa(lp646
I2
aI3
aI5
aI4
aI2
aI2
aa(lp647
I2
aI2
aI3
aI6
aI2
aI1
aa(lp648
I3
aI2
aI3
aI6
aI1
aI0
aa(lp649
I3
aI2
aI2
aI6
aI2
aI1
aa(lp650
I3
aI0
aI4
aI4
aI1
aI2
aa(lp651
I3
aI2
aI4
aI4
aI0
aI2
aa(lp652
I2
aI1
aI2
aI6
aI2
aI1
aa(lp653
I3
aI0
aI4
aI2
aI0
aI1
aa(lp654
I0
aI2
aI3
aI6
aI1
aI2
aa(lp655
I2
aI2
aI2
aI6
aI2
aI2
aa(lp656
I0
aI3
aI2
aI2
aI2
aI1
aa(lp657
I3
aI2
aI2
aI6
aI0
aI1
aa(lp658
I2
aI1
aI5
aI2
aI1
aI1
aa(lp659
I3
aI3
aI3
aI2
aI2
aI0
aa(lp660
I0
aI0
aI2
aI2
aI1
aI2
aa(lp661
I1
aI3
aI2
aI4
aI1
aI0
aa(lp662
I1
aI3
aI5
aI4
aI1
aI0
aa(lp663
I2
aI1
aI3
aI4
aI0
aI1
aa(lp664
I2
aI0
aI2
aI4
aI0
aI2
aa(lp665
I0
aI0
aI4
aI6
aI2
aI0
aa(lp666
I3
aI3
aI3
aI4
aI2
aI0
aa(lp667
I3
aI3
aI5
aI4
aI0
aI0
aa(lp668
I1
aI3
aI4
aI2
aI2
aI2
aa(lp669
I1
aI1
aI5
aI6
aI2
aI1
aa(lp670
I3
aI0
aI5
aI2
aI0
aI0
aa(lp671
I1
aI2
aI4
aI6
aI1
aI1
aa(lp672
I3
aI0
aI2
aI6
aI2
aI0
aa(lp673
I2
aI0
aI2
aI4
aI2
aI1
aa(lp674
I1
aI2
aI4
aI6
aI0
aI2
aa(lp675
I1
aI2
aI4
aI4
aI2
aI1
aa(lp676
I2
aI1
aI3
aI6
aI1
aI0
aa(lp677
I3
aI3
aI5
aI6
aI2
aI1
aa(lp678
I3
aI2
aI5
aI2
aI2
aI2
aa(lp679
I3
aI0
aI5
aI4
aI2
aI2
aa(lp680
I3
aI2
aI5
aI6
aI0
aI1
aa(lp681
I3
aI2
aI5
aI2
aI0
aI0
aa(lp682
I1
aI0
aI5
aI6
aI1
aI2
aa(lp683
I0
aI0
aI2
aI2
aI2
aI0
aa(lp684
I0
aI2
aI2
aI2
aI0
aI2
aa(lp685
I3
aI2
aI2
aI2
aI1
aI2
aa(lp686
I1
aI1
aI5
aI2
aI1
aI2
aa(lp687
I0
aI1
aI5
aI2
aI2
aI2
aa(lp688
I3
aI3
aI5
aI2
aI2
aI2
aa(lp689
I1
aI0
aI3
aI6
aI2
aI2
aa(lp690
I1
aI3
aI5
aI6
aI2
aI0
aa(lp691
I0
aI3
aI2
aI6
aI0
aI1
aa(lp692
I1
aI3
aI3
aI2
aI1
aI1
aa(lp693
I3
aI1
aI3
aI2
aI0
aI1
aa(lp694
I2
aI1
aI5
aI6
aI0
aI2
aa(lp695
I3
aI3
aI5
aI6
aI2
aI2
aa(lp696
I0
aI3
aI5
aI6
aI2
aI2
aa(lp697
I2
aI2
aI2
aI6
aI2
aI1
aa(lp698
I1
aI1
aI4
aI4
aI0
aI2
aa(lp699
I2
aI0
aI3
aI2
aI1
aI1
aa(lp700
I2
aI0
aI3
aI6
aI2
aI2
aa(lp701
I0
aI0
aI3
aI4
aI1
aI1
aa(lp702
I1
aI0
aI4
aI6
aI2
aI0
aa(lp703
I0
aI3
aI4
aI2
aI0
aI1
aa(lp704
I2
aI3
aI5
aI6
aI2
aI0
aa(lp705
I1
aI0
aI5
aI4
aI0
aI1
aa(lp706
I2
aI3
aI3
aI2
aI2
aI0
aa(lp707
I3
aI1
aI4
aI4
aI2
aI0
aa(lp708
I1
aI1
aI2
aI4
aI2
aI0
aa(lp709
I0
aI1
aI5
aI2
aI0
aI0
aa(lp710
I2
aI1
aI5
aI4
aI0
aI0
aa(lp711
I3
aI2
aI5
aI2
aI0
aI1
aa(lp712
I0
aI0
aI3
aI4
aI1
aI0
aa(lp713
I0
aI3
aI4
aI2
aI1
aI1
aa(lp714
I0
aI1
aI3
aI4
aI0
aI0
aa(lp715
I1
aI2
aI3
aI6
aI2
aI0
aa(lp716
I2
aI1
aI2
aI2
aI0
aI0
aa(lp717
I2
aI2
aI5
aI6
aI0
aI0
aa(lp718
I2
aI1
aI4
aI6
aI1
aI2
aa(lp719
I0
aI3
aI3
aI4
aI1
aI2
aa(lp720
I0
aI0
aI2
aI4
aI1
aI1
aa(lp721
I3
aI1
aI2
aI6
aI2
aI0
aa(lp722
I1
aI3
aI2
aI6
aI1
aI1
aa(lp723
I0
aI2
aI2
aI6
aI2
aI2
aa(lp724
I1
aI0
aI3
aI2
aI0
aI1
aa(lp725
I1
aI0
aI2
aI2
aI0
aI0
aa(lp726
I1
aI0
aI4
aI6
aI1
aI2
aa(lp727
I3
aI3
aI5
aI4
aI2
aI2
aa(lp728
I2
aI0
aI4
aI2
aI2
aI0
aa(lp729
I2
aI3
aI3
aI4
aI0
aI1
aa(lp730
I0
aI1
aI4
aI2
aI0
aI0
aa(lp731
I3
aI1
aI5
aI4
aI2
aI1
aa(lp732
I2
aI2
aI4
aI4
aI1
aI2
aa(lp733
I1
aI2
aI5
aI6
aI0
aI1
aa(lp734
I2
aI0
aI3
aI2
aI0
aI0
aa(lp735
I1
aI3
aI5
aI6
aI1
aI2
aa(lp736
I2
aI1
aI4
aI4
aI0
aI2
aa(lp737
I0
aI3
aI3
aI4
aI0
aI0
aa(lp738
I1
aI2
aI4
aI2
aI0
aI1
aa(lp739
I2
aI2
aI4
aI6
aI1
aI0
aa(lp740
I2
aI3
aI4
aI2
aI2
aI2
aa(lp741
I2
aI2
aI2
aI4
aI2
aI2
aa(lp742
I2
aI3
aI3
aI2
aI1
aI2
aa(lp743
I2
aI1
aI2
aI4
aI0
aI1
aa(lp744
I1
aI1
aI3
aI4
aI1
aI2
aa(lp745
I2
aI0
aI5
aI4
aI1
aI0
aa(lp746
I3
aI2
aI4
aI6
aI2
aI2
aa(lp747
I0
aI3
aI4
aI2
aI1
aI0
aa(lp748
I1
aI1
aI2
aI6
aI2
aI2
aa(lp749
I0
aI1
aI2
aI4
aI1
aI0
aa(lp750
I0
aI1
aI4
aI2
aI0
aI1
aa(lp751
I3
aI1
aI4
aI4
aI1
aI1
aa(lp752
I1
aI3
aI4
aI6
aI2
aI0
aa(lp753
I3
aI3
aI2
aI6
aI2
aI2
aa(lp754
I2
aI1
aI3
aI2
aI0
aI2
aa(lp755
I3
aI2
aI4
aI2
aI1
aI2
aa(lp756
I1
aI0
aI3
aI6
aI2
aI1
aa(lp757
I3
aI3
aI2
aI6
aI1
aI0
aa(lp758
I3
aI3
aI4
aI6
aI2
aI2
aa(lp759
I0
aI3
aI2
aI2
aI0
aI2
aa(lp760
I3
aI2
aI5
aI6
aI1
aI1
aa(lp761
I3
aI3
aI5
aI4
aI2
aI1
aa(lp762
I2
aI2
aI2
aI6
aI0
aI1
aa(lp763
I0
aI1
aI5
aI4
aI1
aI2
aa(lp764
I3
aI3
aI4
aI4
aI2
aI2
aa(lp765
I1
aI1
aI5
aI6
aI0
aI2
aa(lp766
I1
aI3
aI2
aI6
aI2
aI1
aa(lp767
I3
aI2
aI2
aI6
aI0
aI0
aa(lp768
I3
aI1
aI4
aI6
aI0
aI1
aa(lp769
I0
aI2
aI4
aI4
aI1
aI1
aa(lp770
I3
aI2
aI4
aI6
aI1
aI0
aa(lp771
I2
aI3
aI2
aI6
aI1
aI2
aa(lp772
I3
aI3
aI3
aI2
aI0
aI0
aa(lp773
I0
aI1
aI3
aI6
aI2
aI0
aa(lp774
I1
aI2
aI3
aI2
aI1
aI1
aa(lp775
I2
aI3
aI4
aI4
aI2
aI1
aa(lp776
I3
aI0
aI2
aI2
aI2
aI2
aa(lp777
I2
aI2
aI5
aI2
aI2
aI2
aa(lp778
I0
aI1
aI3
aI6
aI0
aI0
aa(lp779
I3
aI1
aI2
aI2
aI2
aI0
aa(lp780
I3
aI3
aI4
aI4
aI0
aI1
aa(lp781
I0
aI3
aI2
aI6
aI1
aI0
aa(lp782
I1
aI0
aI2
aI6
aI1
aI0
aa(lp783
I0
aI3
aI2
aI2
aI2
aI0
aa(lp784
I3
aI1
aI2
aI4
aI2
aI0
aa(lp785
I2
aI0
aI5
aI6
aI2
aI0
aa(lp786
I2
aI3
aI5
aI4
aI0
aI1
aa(lp787
I0
aI0
aI2
aI6
aI1
aI0
aa(lp788
I0
aI1
aI4
aI2
aI0
aI2
aa(lp789
I3
aI0
aI2
aI4
aI0
aI0
aa(lp790
I3
aI0
aI3
aI6
aI1
aI2
aa(lp791
I3
aI1
aI3
aI4
aI0
aI2
aa(lp792
I0
aI3
aI2
aI4
aI0
aI1
aa(lp793
I3
aI2
aI5
aI4
aI2
aI2
aa(lp794
I1
aI2
aI3
aI6
aI1
aI1
aa(lp795
I1
aI2
aI4
aI6
aI2
aI1
aa(lp796
I2
aI2
aI4
aI6
aI0
aI2
aa(lp797
I0
aI2
aI4
aI6
aI0
aI1
aa(lp798
I1
aI3
aI3
aI2
aI1
aI2
aa(lp799
I3
aI3
aI3
aI6
aI0
aI1
aa(lp800
I0
aI3
aI3
aI6
aI2
aI2
aa(lp801
I0
aI3
aI3
aI4
aI1
aI0
aa(lp802
I2
aI3
aI4
aI2
aI0
aI2
aa(lp803
I0
aI3
aI5
aI2
aI1
aI0
aa(lp804
I2
aI1
aI3
aI4
aI1
aI1
aa(lp805
I1
aI2
aI3
aI4
aI1
aI2
aa(lp806
I0
aI3
aI2
aI4
aI1
aI1
aa(lp807
I3
aI3
aI5
aI2
aI0
aI0
aa(lp808
I2
aI0
aI4
aI4
aI0
aI2
aa(lp809
I1
aI3
aI2
aI4
aI2
aI2
aa(lp810
I0
aI1
aI3
aI2
aI2
aI2
aa(lp811
I3
aI0
aI5
aI2
aI2
aI0
aa(lp812
I0
aI2
aI2
aI6
aI1
aI2
aa(lp813
I0
aI1
aI3
aI2
aI2
aI1
aa(lp814
I0
aI0
aI3
aI6
aI2
aI2
aa(lp815
I3
aI3
aI2
aI4
aI2
aI2
aa(lp816
I3
aI2
aI4
aI6
aI2
aI1
aa(lp817
I1
aI0
aI4
aI4
aI1
aI1
aa(lp818
I2
aI1
aI3
aI2
aI0
aI1
aa(lp819
I3
aI3
aI5
aI2
aI2
aI0
aa(lp820
I1
aI3
aI2
aI6
aI0
aI1
aa(lp821
I0
aI0
aI4
aI2
aI1
aI0
aa(lp822
I1
aI2
aI3
aI2
aI2
aI0
aa(lp823
I2
aI0
aI2
aI2
aI2
aI0
aa(lp824
I2
aI3
aI3
aI4
aI2
aI0
aa(lp825
I0
aI0
aI3
aI6
aI0
aI1
aa(lp826
I0
aI3
aI2
aI4
aI0
aI0
aa(lp827
I2
aI3
aI3
aI6
aI1
aI0
aa(lp828
I3
aI1
aI3
aI4
aI0
aI1
aa(lp829
I2
aI0
aI3
aI6
aI0
aI1
aa(lp830
I3
aI1
aI4
aI6
aI1
aI1
aa(lp831
I0
aI2
aI5
aI6
aI0
aI0
aa(lp832
I1
aI0
aI2
aI4
aI2
aI2
aa(lp833
I2
aI1
aI5
aI6
aI1
aI0
aa(lp834
I2
aI2
aI5
aI4
aI2
aI2
aa(lp835
I3
aI2
aI2
aI2
aI1
aI1
aa(lp836
I1
aI3
aI3
aI6
aI1
aI0
aa(lp837
I2
aI0
aI5
aI2
aI0
aI0
aa(lp838
I2
aI1
aI4
aI4
aI0
aI0
aa(lp839
I3
aI1
aI4
aI4
aI0
aI2
aa(lp840
I1
aI3
aI3
aI2
aI2
aI2
aa(lp841
I1
aI1
aI5
aI6
aI1
aI2
aa(lp842
I2
aI2
aI2
aI2
aI1
aI0
aa(lp843
I0
aI0
aI5
aI4
aI2
aI0
aa(lp844
I3
aI0
aI4
aI6
aI2
aI0
aa(lp845
I1
aI2
aI5
aI4
aI0
aI0
aa(lp846
I1
aI2
aI2
aI4
aI2
aI2
aa(lp847
I1
aI3
aI5
aI2
aI2
aI1
aa(lp848
I0
aI1
aI2
aI6
aI1
aI1
aa(lp849
I0
aI0
aI5
aI6
aI1
aI2
aa(lp850
I3
aI3
aI3
aI4
aI1
aI1
aa(lp851
I0
aI0
aI2
aI4
aI2
aI2
aa(lp852
I3
aI1
aI3
aI2
aI0
aI2
aa(lp853
I2
aI2
aI5
aI6
aI2
aI2
aa(lp854
I1
aI2
aI2
aI6
aI0
aI1
aa(lp855
I3
aI0
aI3
aI2
aI2
aI1
aa(lp856
I1
aI1
aI3
aI2
aI0
aI1
aa(lp857
I1
aI0
aI5
aI6
aI2
aI0
aa(lp858
I2
aI1
aI3
aI2
aI2
aI2
aa(lp859
I3
aI1
aI3
aI2
aI2
aI2
aa(lp860
I0
aI1
aI5
aI2
aI2
aI0
aa(lp861
I3
aI2
aI5
aI6
aI0
aI0
aa(lp862
I1
aI3
aI4
aI4
aI1
aI0
aa(lp863
I0
aI2
aI2
aI4
aI2
aI0
aa(lp864
I3
aI0
aI4
aI2
aI2
aI2
aa(lp865
I3
aI0
aI3
aI6
aI0
aI2
aa(lp866
I2
aI3
aI5
aI4
aI2
aI1
aa(lp867
I1
aI1
aI3
aI2
aI1
aI0
aa(lp868
I0
aI2
aI5
aI6
aI0
aI1
aa(lp869
I3
aI3
aI4
aI6
aI2
aI0
aa(lp870
I0
aI2
aI5
aI4
aI2
aI2
aa(lp871
I3
aI0
aI4
aI2
aI1
aI1
aa(lp872
I0
aI2
aI4
aI2
aI0
aI2
aa(lp873
I0
aI2
aI3
aI6
aI2
aI1
aa(lp874
I1
aI0
aI2
aI4
aI1
aI0
aa(lp875
I3
aI2
aI2
aI2
aI2
aI2
aa(lp876
I2
aI1
aI4
aI4
aI0
aI1
aa(lp877
I1
aI1
aI5
aI6
aI1
aI0
aa(lp878
I0
aI1
aI3
aI2
aI1
aI0
aa(lp879
I0
aI3
aI2
aI2
aI1
aI1
aa(lp880
I1
aI3
aI5
aI4
aI0
aI1
aa(lp881
I3
aI0
aI2
aI6
aI1
aI0
aa(lp882
I2
aI0
aI4
aI6
aI2
aI1
aa(lp883
I3
aI0
aI4
aI4
aI0
aI2
aa(lp884
I1
aI0
aI5
aI6
aI1
aI1
aa(lp885
I1
aI0
aI4
aI2
aI0
aI1
aa(lp886
I2
aI1
aI3
aI6
aI1
aI1
aa(lp887
I2
aI0
aI2
aI2
aI0
aI2
aa(lp888
I0
aI2
aI2
aI6
aI0
aI1
aa(lp889
I3
aI3
aI5
aI2
aI1
aI1
aa(lp890
I2
aI0
aI3
aI2
aI0
aI2
aa(lp891
I0
aI3
aI3
aI2
aI0
aI0
aa(lp892
I3
aI2
aI3
aI4
aI1
aI0
aa(lp893
I2
aI3
aI4
aI4
aI1
aI0
aa(lp894
I0
aI2
aI4
aI2
aI1
aI1
aa(lp895
I3
aI0
aI3
aI4
aI0
aI1
aa(lp896
I0
aI0
aI2
aI4
aI2
aI0
aa(lp897
I0
aI0
aI5
aI6
aI0
aI1
aa(lp898
I0
aI1
aI2
aI6
aI2
aI0
aa(lp899
I0
aI0
aI2
aI6
aI0
aI0
aa(lp900
I3
aI1
aI2
aI2
aI0
aI1
aa(lp901
I3
aI0
aI3
aI6
aI1
aI1
aa(lp902
I0
aI0
aI3
aI4
aI2
aI0
aa(lp903
I1
aI3
aI2
aI2
aI0
aI0
aa(lp904
I2
aI0
aI2
aI4
aI0
aI0
aa(lp905
I0
aI3
aI2
aI2
aI0
aI0
aa(lp906
I0
aI3
aI5
aI6
aI0
aI1
aa(lp907
I0
aI3
aI5
aI6
aI0
aI2
aa(lp908
I3
aI2
aI4
aI4
aI2
aI0
aa(lp909
I0
aI0
aI2
aI2
aI1
aI0
aa(lp910
I3
aI0
aI3
aI6
aI2
aI0
aa(lp911
I2
aI0
aI5
aI4
aI1
aI2
aa(lp912
I2
aI2
aI3
aI2
aI2
aI0
aa(lp913
I1
aI0
aI3
aI2
aI0
aI2
aa(lp914
I3
aI1
aI3
aI4
aI1
aI0
aa(lp915
I2
aI3
aI4
aI6
aI0
aI1
aa(lp916
I2
aI0
aI2
aI2
aI1
aI2
aa(lp917
I0
aI2
aI5
aI6
aI0
aI2
aa(lp918
I3
aI2
aI4
aI6
aI0
aI0
aa(lp919
I0
aI3
aI4
aI6
aI2
aI1
aa(lp920
I1
aI1
aI2
aI6
aI2
aI1
aa(lp921
I1
aI1
aI2
aI2
aI2
aI2
aa(lp922
I2
aI2
aI5
aI2
aI0
aI1
aa(lp923
I0
aI0
aI3
aI6
aI0
aI2
aa(lp924
I1
aI3
aI3
aI2
aI0
aI1
aa(lp925
I2
aI1
aI5
aI4
aI2
aI1
aa(lp926
I0
aI1
aI2
aI6
aI0
aI1
aa(lp927
I1
aI1
aI4
aI4
aI1
aI1
aa(lp928
I3
aI0
aI5
aI4
aI0
aI1
aa(lp929
I0
aI2
aI5
aI4
aI1
aI2
aa(lp930
I3
aI0
aI3
aI2
aI2
aI2
aa(lp931
I0
aI2
aI5
aI4
aI2
aI1
aa(lp932
I2
aI1
aI3
aI6
aI2
aI0
aa(lp933
I1
aI3
aI4
aI4
aI1
aI2
aa(lp934
I1
aI3
aI3
aI6
aI1
aI2
aa(lp935
I1
aI0
aI5
aI2
aI2
aI2
aa(lp936
I1
aI1
aI4
aI6
aI2
aI0
aa(lp937
I1
aI3
aI5
aI4
aI1
aI1
aa(lp938
I1
aI2
aI3
aI4
aI2
aI2
aa(lp939
I3
aI0
aI5
aI4
aI0
aI0
aa(lp940
I2
aI1
aI4
aI6
aI2
aI0
aa(lp941
I0
aI0
aI3
aI4
aI0
aI0
aa(lp942
I3
aI0
aI5
aI2
aI0
aI1
aa(lp943
I3
aI0
aI3
aI4
aI1
aI0
aa(lp944
I0
aI2
aI5
aI4
aI1
aI0
aa(lp945
I2
aI3
aI2
aI4
aI1
aI0
aa(lp946
I2
aI3
aI2
aI6
aI0
aI0
aa(lp947
I1
aI1
aI3
aI2
aI1
aI1
aa(lp948
I3
aI2
aI4
aI4
aI2
aI1
aa(lp949
I2
aI3
aI5
aI2
aI0
aI1
aa(lp950
I0
aI2
aI3
aI6
aI2
aI0
aa(lp951
I3
aI1
aI5
aI2
aI0
aI0
aa(lp952
I3
aI3
aI3
aI2
aI0
aI2
aa(lp953
I2
aI0
aI5
aI4
aI2
aI1
aa(lp954
I2
aI2
aI4
aI4
aI1
aI1
aa(lp955
I2
aI2
aI2
aI2
aI2
aI0
aa(lp956
I2
aI0
aI2
aI6
aI2
aI0
aa(lp957
I2
aI3
aI2
aI6
aI0
aI2
aa(lp958
I3
aI2
aI2
aI4
aI2
aI2
aa(lp959
I2
aI1
aI2
aI4
aI0
aI2
aa(lp960
I3
aI2
aI3
aI6
aI0
aI0
aa(lp961
I2
aI3
aI4
aI6
aI1
aI1
aa(lp962
I1
aI1
aI4
aI2
aI2
aI1
aa(lp963
I1
aI0
aI3
aI4
aI2
aI0
aa(lp964
I1
aI1
aI4
aI2
aI2
aI2
aa(lp965
I3
aI3
aI2
aI4
aI0
aI0
aa(lp966
I3
aI3
aI2
aI2
aI0
aI0
aa(lp967
I3
aI1
aI4
aI2
aI1
aI0
aa(lp968
I1
aI2
aI4
aI4
aI1
aI0
aa(lp969
I3
aI1
aI4
aI2
aI0
aI2
aa(lp970
I0
aI1
aI2
aI2
aI1
aI0
aa(lp971
I2
aI0
aI3
aI2
aI2
aI1
aa(lp972
I1
aI2
aI2
aI2
aI0
aI0
aa(lp973
I3
aI2
aI2
aI4
aI1
aI0
aa(lp974
I3
aI1
aI3
aI6
aI0
aI2
aa(lp975
I0
aI3
aI2
aI6
aI2
aI0
aa(lp976
I2
aI1
aI5
aI4
aI2
aI2
aa(lp977
I3
aI0
aI5
aI2
aI0
aI2
aa(lp978
I3
aI2
aI4
aI4
aI0
aI1
aa(lp979
I0
aI0
aI4
aI2
aI0
aI2
aa(lp980
I0
aI1
aI3
aI6
aI1
aI0
aa(lp981
I0
aI1
aI2
aI6
aI2
aI1
aa(lp982
I0
aI3
aI5
aI4
aI2
aI0
aa(lp983
I3
aI1
aI2
aI2
aI2
aI2
aa(lp984
I0
aI2
aI4
aI6
aI0
aI0
aa(lp985
I3
aI1
aI2
aI4
aI0
aI0
aa(lp986
I3
aI0
aI4
aI6
aI2
aI1
aa(lp987
I1
aI2
aI3
aI4
aI1
aI1
aa(lp988
I0
aI2
aI2
aI6
aI0
aI2
aa(lp989
I3
aI3
aI2
aI2
aI2
aI1
aa(lp990
I1
aI2
aI4
aI2
aI1
aI2
aa(lp991
I3
aI2
aI4
aI2
aI0
aI0
aa(lp992
I3
aI3
aI4
aI6
aI2
aI1
aa(lp993
I3
aI3
aI4
aI4
aI1
aI0
aa(lp994
I2
aI0
aI4
aI2
aI2
aI1
aa(lp995
I2
aI2
aI3
aI4
aI2
aI0
aa(lp996
I0
aI1
aI5
aI4
aI1
aI0
aa(lp997
I3
aI2
aI4
aI2
aI0
aI1
aa(lp998
I1
aI2
aI2
aI4
aI2
aI0
aa(lp999
I0
aI0
aI2
aI2
aI0
aI0
aa(lp1000
I1
aI0
aI2
aI4
aI0
aI0
aa(lp1001
I3
aI3
aI2
aI2
aI2
aI2
aa(lp1002
I0
aI0
aI4
aI4
aI1
aI2
aa(lp1003
I3
aI1
aI2
aI2
aI0
aI2
aa(lp1004
I1
aI0
aI3
aI6
aI1
aI1
aa(lp1005
I2
aI2
aI5
aI6
aI2
aI0
aa(lp1006
I3
aI2
aI3
aI2
aI1
aI0
aa(lp1007
I1
aI3
aI5
aI6
aI1
aI0
aa(lp1008
I2
aI2
aI4
aI4
aI0
aI1
aa(lp1009
I1
aI2
aI3
aI6
aI2
aI2
aa(lp1010
I2
aI3
aI4
aI4
aI1
aI1
aa(lp1011
I3
aI0
aI2
aI2
aI0
aI1
aa(lp1012
I0
aI0
aI2
aI4
aI1
aI2
aa(lp1013
I0
aI2
aI4
aI6
aI0
aI2
aa(lp1014
I1
aI1
aI5
aI6
aI2
aI0
aa(lp1015
I0
aI1
aI4
aI6
aI2
aI0
aa(lp1016
I2
aI2
aI5
aI4
aI2
aI1
aa(lp1017
I0
aI0
aI2
aI2
aI0
aI1
aa(lp1018
I0
aI1
aI5
aI6
aI0
aI0
aa(lp1019
I1
aI2
aI3
aI6
aI2
aI1
aa(lp1020
I0
aI3
aI5
aI2
aI1
aI1
aa(lp1021
I0
aI3
aI5
aI2
aI2
aI2
aa(lp1022
I2
aI3
aI2
aI2
aI2
aI0
aa(lp1023
I0
aI3
aI4
aI6
aI2
aI0
aa(lp1024
I2
aI2
aI5
aI6
aI0
aI2
aa(lp1025
I2
aI1
aI4
aI2
aI1
aI1
aa(lp1026
I3
aI2
aI5
aI2
aI1
aI0
aa(lp1027
I1
aI1
aI4
aI6
aI2
aI2
aa(lp1028
I1
aI2
aI5
aI2
aI1
aI0
aa(lp1029
I0
aI2
aI3
aI2
aI0
aI2
aa(lp1030
I0
aI2
aI4
aI2
aI2
aI1
aa(lp1031
I0
aI3
aI2
aI4
aI2
aI0
aa(lp1032
I0
aI2
aI2
aI4
aI2
aI2
aa(lp1033
I3
aI3
aI2
aI6
aI1
aI2
aa(lp1034
I0
aI2
aI5
aI2
aI0
aI2
aa(lp1035
I1
aI3
aI2
aI4
aI0
aI2
aa(lp1036
I0
aI2
aI3
aI6
aI0
aI1
aa(lp1037
I0
aI3
aI4
aI2
aI2
aI0
aa(lp1038
I1
aI3
aI3
aI6
aI0
aI2
aa(lp1039
I1
aI0
aI2
aI6
aI0
aI0
aa(lp1040
I0
aI0
aI5
aI6
aI2
aI1
aa(lp1041
I3
aI0
aI3
aI4
aI0
aI2
aa(lp1042
I0
aI3
aI5
aI6
aI1
aI1
aa(lp1043
I2
aI2
aI4
aI4
aI2
aI0
aa(lp1044
I1
aI1
aI3
aI6
aI1
aI1
aa(lp1045
I3
aI2
aI4
aI2
aI1
aI0
aa(lp1046
I1
aI1
aI2
aI6
aI0
aI0
aa(lp1047
I2
aI3
aI5
aI2
aI2
aI2
aa(lp1048
I1
aI0
aI5
aI4
aI2
aI0
aa(lp1049
I2
aI1
aI5
aI4
aI1
aI2
aa(lp1050
I2
aI1
aI5
aI2
aI2
aI2
aa(lp1051
I1
aI3
aI5
aI4
aI2
aI1
aa(lp1052
I0
aI2
aI5
aI6
aI2
aI1
aa(lp1053
I1
aI0
aI3
aI6
aI1
aI0
aa(lp1054
I3
aI1
aI2
aI4
aI1
aI2
aa(lp1055
I2
aI1
aI3
aI4
aI0
aI0
aa(lp1056
I0
aI1
aI2
aI2
aI0
aI2
aa(lp1057
I1
aI1
aI3
aI2
aI2
aI2
aa(lp1058
I0
aI0
aI3
aI2
aI0
aI1
aa(lp1059
I3
aI2
aI2
aI6
aI1
aI1
aa(lp1060
I1
aI3
aI5
aI2
aI1
aI0
aa(lp1061
I3
aI1
aI5
aI2
aI1
aI1
aa(lp1062
I1
aI2
aI3
aI4
aI0
aI1
aa(lp1063
I1
aI2
aI4
aI2
aI0
aI2
aa(lp1064
I0
aI3
aI4
aI4
aI2
aI1
aa(lp1065
I0
aI1
aI5
aI2
aI1
aI1
aa(lp1066
I0
aI2
aI4
aI2
aI1
aI2
aa(lp1067
I0
aI1
aI3
aI4
aI2
aI2
aa(lp1068
I3
aI0
aI3
aI2
aI0
aI1
aa(lp1069
I1
aI2
aI5
aI2
aI0
aI2
aa(lp1070
I2
aI0
aI4
aI6
aI1
aI1
aa(lp1071
I2
aI2
aI4
aI6
aI2
aI0
aa(lp1072
I3
aI1
aI5
aI6
aI2
aI0
aa(lp1073
I1
aI0
aI4
aI2
aI0
aI0
aa(lp1074
I3
aI1
aI3
aI6
aI2
aI2
aa(lp1075
I0
aI1
aI4
aI2
aI2
aI2
aa(lp1076
I0
aI0
aI5
aI2
aI2
aI2
aa(lp1077
I3
aI1
aI5
aI2
aI2
aI2
aa(lp1078
I0
aI3
aI3
aI6
aI0
aI0
aa(lp1079
I1
aI0
aI3
aI2
aI0
aI0
aa(lp1080
I1
aI3
aI5
aI4
aI0
aI0
aa(lp1081
I0
aI2
aI3
aI2
aI0
aI0
aa(lp1082
I1
aI3
aI3
aI6
aI2
aI0
aa(lp1083
I0
aI2
aI4
aI4
aI0
aI2
aa(lp1084
I2
aI2
aI4
aI4
aI0
aI2
aa(lp1085
I2
aI0
aI5
aI2
aI1
aI0
aa(lp1086
I1
aI3
aI5
aI4
aI1
aI2
aa(lp1087
I0
aI3
aI3
aI6
aI1
aI2
aa(lp1088
I1
aI1
aI3
aI4
aI0
aI2
aa(lp1089
I1
aI3
aI5
aI6
aI0
aI2
aa(lp1090
I2
aI3
aI2
aI2
aI1
aI1
aa(lp1091
I0
aI3
aI2
aI6
aI1
aI2
aa(lp1092
I3
aI0
aI3
aI4
aI1
aI1
aa(lp1093
I2
aI3
aI5
aI4
aI0
aI0
aa(lp1094
I1
aI1
aI4
aI4
aI2
aI0
aa(lp1095
I2
aI3
aI3
aI2
aI2
aI1
aa(lp1096
I2
aI3
aI3
aI2
aI0
aI0
aa(lp1097
I1
aI1
aI4
aI2
aI0
aI2
aa(lp1098
I2
aI2
aI3
aI2
aI1
aI0
aa(lp1099
I0
aI0
aI5
aI6
aI2
aI2
aa(lp1100
I3
aI0
aI2
aI6
aI2
aI1
aa(lp1101
I3
aI2
aI5
aI2
aI0
aI2
aa(lp1102
I2
aI2
aI4
aI2
aI0
aI1
aa(lp1103
I2
aI1
aI2
aI2
aI0
aI1
aa(lp1104
I3
aI3
aI3
aI4
aI1
aI0
aa(lp1105
I3
aI1
aI5
aI4
aI2
aI0
aa(lp1106
I0
aI2
aI3
aI4
aI1
aI1
aa(lp1107
I0
aI3
aI5
aI4
aI2
aI1
aa(lp1108
I3
aI1
aI3
aI4
aI0
aI0
aa(lp1109
I0
aI2
aI4
aI2
aI0
aI0
aa(lp1110
I3
aI3
aI5
aI4
aI1
aI0
aa(lp1111
I2
aI3
aI2
aI2
aI0
aI1
aa(lp1112
I2
aI1
aI2
aI4
aI1
aI2
aa(lp1113
I1
aI1
aI2
aI6
aI0
aI1
aa(lp1114
I0
aI1
aI5
aI2
aI1
aI2
aa(lp1115
I2
aI1
aI2
aI2
aI1
aI0
aa(lp1116
I1
aI2
aI5
aI4
aI1
aI2
aa(lp1117
I2
aI0
aI3
aI6
aI0
aI0
aa(lp1118
I3
aI2
aI3
aI2
aI2
aI0
aa(lp1119
I0
aI0
aI3
aI2
aI2
aI0
aa(lp1120
I2
aI1
aI2
aI4
aI1
aI1
aa(lp1121
I1
aI0
aI5
aI4
aI2
aI1
aa(lp1122
I2
aI0
aI2
aI4
aI0
aI1
aa(lp1123
I3
aI0
aI2
aI2
aI0
aI0
aa(lp1124
I0
aI3
aI2
aI2
aI0
aI1
aa(lp1125
I1
aI0
aI5
aI6
aI2
aI1
aa(lp1126
I1
aI0
aI2
aI6
aI0
aI1
aa(lp1127
I2
aI3
aI2
aI4
aI0
aI1
aa(lp1128
I2
aI3
aI3
aI2
aI0
aI2
aa(lp1129
I3
aI2
aI2
aI2
aI0
aI1
aa(lp1130
I3
aI3
aI4
aI2
aI2
aI1
aa(lp1131
I0
aI1
aI2
aI4
aI2
aI2
aa(lp1132
I2
aI0
aI3
aI6
aI1
aI0
aa(lp1133
I2
aI3
aI4
aI4
aI1
aI2
aa(lp1134
I2
aI3
aI2
aI6
aI1
aI0
aa(lp1135
I0
aI3
aI4
aI4
aI2
aI2
aa(lp1136
I2
aI2
aI5
aI6
aI0
aI1
aa(lp1137
I1
aI3
aI5
aI2
aI1
aI2
aa(lp1138
I0
aI2
aI5
aI2
aI1
aI2
aa(lp1139
I0
aI0
aI5
aI2
aI0
aI2
aa(lp1140
I3
aI2
aI2
aI4
aI0
aI1
aa(lp1141
I0
aI3
aI5
aI4
aI0
aI2
aa(lp1142
I1
aI0
aI4
aI4
aI2
aI1
aa(lp1143
I2
aI1
aI2
aI6
aI0
aI1
aa(lp1144
I1
aI1
aI5
aI2
aI2
aI0
aa(lp1145
I3
aI3
aI5
aI2
aI0
aI2
aa(lp1146
I0
aI1
aI3
aI4
aI1
aI2
aa(lp1147
I2
aI1
aI4
aI4
aI2
aI1
aa(lp1148
I2
aI0
aI5
aI2
aI2
aI2
aa(lp1149
I2
aI1
aI2
aI4
aI2
aI0
aa(lp1150
I3
aI2
aI5
aI4
aI0
aI0
aa(lp1151
I0
aI3
aI4
aI4
aI0
aI1
aa(lp1152
I2
aI1
aI2
aI6
aI2
aI2
aa(lp1153
I2
aI3
aI4
aI4
aI0
aI0
aa(lp1154
I0
aI3
aI5
aI4
aI2
aI2
aa(lp1155
I3
aI3
aI5
aI6
aI1
aI1
aa(lp1156
I3
aI2
aI2
aI6
aI2
aI2
aa(lp1157
I2
aI1
aI5
aI6
aI2
aI2
aa(lp1158
I2
aI2
aI4
aI6
aI2
aI2
aa(lp1159
I3
aI3
aI3
aI4
aI1
aI2
aa(lp1160
I1
aI1
aI5
aI2
aI2
aI2
aa(lp1161
I2
aI1
aI4
aI2
aI2
aI1
aa(lp1162
I2
aI1
aI5
aI6
aI1
aI2
aa(lp1163
I3
aI2
aI5
aI6
aI2
aI2
aa(lp1164
I1
aI2
aI3
aI4
aI0
aI0
aa(lp1165
I2
aI0
aI2
aI2
aI0
aI0
aa(lp1166
I0
aI2
aI2
aI2
aI1
aI1
aa(lp1167
I0
aI2
aI3
aI4
aI2
aI0
aa(lp1168
I3
aI2
aI2
aI2
aI2
aI0
aa(lp1169
I3
aI0
aI4
aI4
aI1
aI1
aa(lp1170
I0
aI2
aI2
aI4
aI2
aI1
aa(lp1171
I1
aI2
aI2
aI2
aI1
aI1
aa(lp1172
I1
aI2
aI4
aI2
aI0
aI0
aa(lp1173
I2
aI1
aI3
aI2
aI1
aI1
aa(lp1174
I0
aI1
aI4
aI6
aI1
aI1
aa(lp1175
I2
aI3
aI4
aI4
aI2
aI2
aa(lp1176
I0
aI3
aI2
aI6
aI0
aI2
aa(lp1177
I3
aI1
aI2
aI6
aI2
aI2
aa(lp1178
I2
aI1
aI4
aI6
aI1
aI1
aa(lp1179
I2
aI0
aI4
aI6
aI2
aI0
aa(lp1180
I2
aI1
aI4
aI2
aI2
aI2
aa(lp1181
I2
aI3
aI4
aI4
aI0
aI1
aa(lp1182
I0
aI1
aI2
aI6
aI1
aI0
aa(lp1183
I3
aI3
aI4
aI2
aI1
aI2
aa(lp1184
I2
aI2
aI4
aI4
aI0
aI0
aa(lp1185
I0
aI2
aI4
aI4
aI0
aI0
aa(lp1186
I3
aI0
aI2
aI6
aI0
aI2
aa(lp1187
I0
aI1
aI4
aI2
aI1
aI1
aa(lp1188
I0
aI1
aI4
aI4
aI1
aI2
aa(lp1189
I0
aI3
aI4
aI6
aI0
aI1
aa(lp1190
I3
aI2
aI5
aI2
aI2
aI0
aa(lp1191
I2
aI3
aI4
aI6
aI2
aI0
aa(lp1192
I0
aI0
aI4
aI6
aI0
aI2
aa(lp1193
I1
aI0
aI2
aI4
aI2
aI0
aa(lp1194
I0
aI3
aI4
aI6
aI1
aI2
aa(lp1195
I2
aI2
aI3
aI6
aI0
aI0
aa(lp1196
I3
aI0
aI3
aI6
aI0
aI0
aa(lp1197
I3
aI0
aI5
aI4
aI2
aI1
aa(lp1198
I3
aI0
aI5
aI4
aI1
aI0
aa(lp1199
I3
aI2
aI4
aI2
aI2
aI2
aa(lp1200
I0
aI0
aI2
aI4
aI2
aI1
aa(lp1201
I2
aI3
aI4
aI2
aI2
aI0
aa(lp1202
I1
aI2
aI2
aI6
aI1
aI1
aa(lp1203
I1
aI2
aI5
aI6
aI0
aI0
aa(lp1204
I0
aI3
aI4
aI4
aI0
aI2
aa(lp1205
I1
aI2
aI2
aI4
aI1
aI0
aa(lp1206
I0
aI3
aI3
aI2
aI1
aI0
aa(lp1207
I0
aI0
aI4
aI4
aI0
aI0
aa(lp1208
I0
aI1
aI5
aI6
aI1
aI0
aa(lp1209
I1
aI0
aI4
aI6
aI2
aI2
aa(lp1210
I3
aI1
aI5
aI6
aI1
aI0
aa(lp1211
I0
aI1
aI2
aI6
aI2
aI2
aa(lp1212
I3
aI0
aI2
aI2
aI2
aI0
aa(lp1213
I2
aI0
aI3
aI6
aI0
aI2
aa(lp1214
I1
aI3
aI2
aI6
aI1
aI0
aa(lp1215
I0
aI0
aI4
aI6
aI2
aI1
aa(lp1216
I0
aI2
aI5
aI2
aI2
aI0
aa(lp1217
I2
aI3
aI5
aI2
aI0
aI2
aa(lp1218
I1
aI2
aI4
aI4
aI2
aI0
aa(lp1219
I1
aI2
aI5
aI4
aI2
aI0
aa(lp1220
I2
aI2
aI5
aI4
aI1
aI2
aa(lp1221
I2
aI0
aI2
aI6
aI1
aI0
aa(lp1222
I0
aI0
aI4
aI4
aI1
aI1
aa(lp1223
I3
aI2
aI5
aI2
aI1
aI2
aa(lp1224
I2
aI0
aI4
aI4
aI2
aI0
aa(lp1225
I1
aI0
aI2
aI4
aI1
aI2
aa(lp1226
I3
aI2
aI3
aI2
aI2
aI1
aa(lp1227
I3
aI1
aI4
aI2
aI2
aI1
aa(lp1228
I0
aI2
aI3
aI6
aI0
aI2
aa(lp1229
I1
aI1
aI4
aI6
aI1
aI0
aa(lp1230
I1
aI1
aI2
aI2
aI0
aI1
aa(lp1231
I0
aI3
aI5
aI4
aI1
aI2
aa(lp1232
I3
aI1
aI4
aI4
aI2
aI2
aa(lp1233
I1
aI2
aI4
aI2
aI2
aI2
aa(lp1234
I1
aI2
aI2
aI4
aI0
aI2
aa(lp1235
I0
aI2
aI3
aI4
aI0
aI2
aa(lp1236
I0
aI1
aI4
aI2
aI2
aI0
aa(lp1237
I2
aI3
aI5
aI6
aI1
aI2
aa(lp1238
I3
aI1
aI2
aI6
aI1
aI2
aa(lp1239
I0
aI1
aI3
aI2
aI0
aI1
aa(lp1240
I3
aI3
aI4
aI4
aI0
aI2
aa(lp1241
I2
aI2
aI3
aI6
aI0
aI1
aa(lp1242
I1
aI2
aI2
aI6
aI0
aI0
aa(lp1243
I0
aI2
aI3
aI2
aI2
aI1
aa(lp1244
I2
aI0
aI4
aI4
aI1
aI1
aa(lp1245
I0
aI1
aI4
aI4
aI2
aI2
aa(lp1246
I2
aI1
aI3
aI4
aI2
aI2
aa(lp1247
I2
aI0
aI5
aI6
aI2
aI2
aa(lp1248
I1
aI1
aI3
aI4
aI2
aI2
aa(lp1249
I0
aI3
aI3
aI6
aI2
aI1
aa(lp1250
I0
aI2
aI3
aI4
aI2
aI1
aa(lp1251
I1
aI1
aI3
aI2
aI2
aI0
aa(lp1252
I0
aI3
aI4
aI6
aI1
aI0
aa(lp1253
I2
aI0
aI4
aI2
aI0
aI2
aa(lp1254
I2
aI0
aI3
aI4
aI2
aI2
aa(lp1255
I3
aI0
aI3
aI4
aI1
aI2
aa(lp1256
I0
aI3
aI4
aI6
aI0
aI2
aa(lp1257
I3
aI0
aI4
aI2
aI0
aI0
aa(lp1258
I3
aI3
aI2
aI4
aI1
aI2
aa(lp1259
I0
aI0
aI5
aI6
aI0
aI2
aa(lp1260
I1
aI0
aI5
aI4
aI1
aI1
aa(lp1261
I3
aI1
aI2
aI2
aI1
aI0
aa(lp1262
I1
aI1
aI3
aI4
aI0
aI1
aa(lp1263
I1
aI3
aI2
aI4
aI0
aI0
aa(lp1264
I0
aI0
aI5
aI4
aI0
aI2
aa(lp1265
I1
aI1
aI2
aI2
aI0
aI0
aa(lp1266
I3
aI3
aI4
aI6
aI0
aI1
aa(lp1267
I2
aI1
aI2
aI6
aI1
aI2
aa(lp1268
I0
aI3
aI2
aI6
aI0
aI0
aa(lp1269
I1
aI3
aI2
aI2
aI1
aI2
aa(lp1270
I3
aI1
aI4
aI2
aI1
aI2
aa(lp1271
I0
aI2
aI4
aI6
aI1
aI2
aa(lp1272
I1
aI0
aI2
aI2
aI2
aI0
aa(lp1273
I3
aI3
aI5
aI4
aI1
aI1
aa(lp1274
I2
aI1
aI2
aI4
aI1
aI0
aa(lp1275
I3
aI0
aI5
aI4
aI1
aI1
aa(lp1276
I2
aI0
aI5
aI4
aI0
aI0
aa(lp1277
I1
aI3
aI4
aI4
aI1
aI1
aa(lp1278
I1
aI1
aI5
aI4
aI1
aI0
aa(lp1279
I2
aI2
aI2
aI4
aI1
aI2
aa(lp1280
I0
aI2
aI3
aI4
aI2
aI2
aa(lp1281
I1
aI0
aI2
aI6
aI0
aI2
aa(lp1282
I0
aI1
aI4
aI2
aI1
aI0
aa(lp1283
I3
aI3
aI2
aI4
aI0
aI1
aa(lp1284
I1
aI0
aI4
aI4
aI1
aI2
aa(lp1285
I2
aI0
aI4
aI4
aI2
aI1
aa(lp1286
I1
aI1
aI2
aI6
aI2
aI0
aa(lp1287
I3
aI1
aI3
aI4
aI1
aI1
aa(lp1288
I0
aI2
aI2
aI2
aI2
aI0
aa(lp1289
I0
aI0
aI3
aI2
aI2
aI2
aa(lp1290
I1
aI1
aI3
aI2
aI2
aI1
aa(lp1291
I2
aI2
aI3
aI6
aI1
aI1
aa(lp1292
I1
aI2
aI4
aI2
aI2
aI0
aa(lp1293
I3
aI1
aI3
aI6
aI0
aI1
aa(lp1294
I3
aI2
aI5
aI6
aI0
aI2
aa(lp1295
I1
aI1
aI4
aI6
aI1
aI1
aa(lp1296
I3
aI1
aI4
aI6
aI2
aI1
aa(lp1297
I3
aI1
aI5
aI6
aI2
aI1
aa(lp1298
I3
aI3
aI4
aI4
aI2
aI0
aa(lp1299
I1
aI0
aI5
aI4
aI2
aI2
aa(lp1300
I1
aI3
aI4
aI4
aI2
aI2
aa(lp1301
I0
aI3
aI3
aI6
aI0
aI1
aa(lp1302
I2
aI3
aI5
aI6
aI0
aI2
aa(lp1303
I1
aI0
aI5
aI2
aI2
aI1
aa(lp1304
I3
aI1
aI2
aI4
aI0
aI2
aa(lp1305
I1
aI1
aI5
aI4
aI1
aI1
aa(lp1306
I3
aI2
aI3
aI2
aI1
aI2
aa(lp1307
I1
aI2
aI5
aI2
aI1
aI1
aa(lp1308
I0
aI0
aI4
aI2
aI2
aI1
aa(lp1309
I2
aI2
aI3
aI4
aI2
aI2
aa(lp1310
I3
aI3
aI4
aI2
aI2
aI0
aa(lp1311
I1
aI1
aI5
aI4
aI2
aI2
aa(lp1312
I0
aI1
aI2
aI4
aI0
aI2
aa(lp1313
I2
aI0
aI5
aI6
aI0
aI1
aa(lp1314
I1
aI3
aI3
aI6
aI0
aI0
aa(lp1315
I1
aI2
aI4
aI6
aI1
aI2
aa(lp1316
I1
aI1
aI5
aI2
aI0
aI0
aa(lp1317
I0
aI1
aI3
aI2
aI2
aI0
aa(lp1318
I0
aI0
aI5
aI2
aI0
aI0
aa(lp1319
I3
aI0
aI2
aI4
aI0
aI2
aa(lp1320
I1
aI1
aI4
aI2
aI0
aI1
aa(lp1321
I0
aI0
aI4
aI2
aI0
aI1
aa(lp1322
I1
aI0
aI5
aI2
aI1
aI0
aa(lp1323
I3
aI0
aI3
aI4
aI2
aI0
aa(lp1324
I3
aI3
aI3
aI6
aI2
aI0
aa(lp1325
I0
aI3
aI5
aI4
aI0
aI0
aa(lp1326
I1
aI0
aI2
aI2
aI1
aI2
aa(lp1327
I2
aI3
aI5
aI6
aI0
aI0
aa(lp1328
I3
aI1
aI5
aI4
aI0
aI1
aa(lp1329
I1
aI2
aI4
aI2
aI1
aI1
aa(lp1330
I0
aI2
aI3
aI6
aI2
aI2
aa(lp1331
I3
aI2
aI3
aI6
aI1
aI2
aa(lp1332
I3
aI2
aI3
aI4
aI0
aI2
aa(lp1333
I3
aI3
aI3
aI2
aI1
aI2
aa(lp1334
I0
aI2
aI5
aI6
aI1
aI2
aa(lp1335
I3
aI3
aI5
aI4
aI0
aI2
aa(lp1336
I2
aI0
aI3
aI2
aI2
aI2
aa(lp1337
I3
aI2
aI5
aI6
aI2
aI1
aa(lp1338
I0
aI3
aI5
aI2
aI2
aI1
aa(lp1339
I0
aI1
aI2
aI2
aI1
aI2
aa(lp1340
I0
aI0
aI4
aI6
aI2
aI2
aa(lp1341
I3
aI2
aI3
aI4
aI2
aI0
aa(lp1342
I1
aI0
aI3
aI6
aI0
aI2
aa(lp1343
I2
aI0
aI2
aI2
aI0
aI1
aa(lp1344
I0
aI1
aI3
aI2
aI1
aI2
aa(lp1345
I2
aI3
aI3
aI4
aI2
aI2
aa(lp1346
I3
aI0
aI4
aI2
aI2
aI1
aa(lp1347
I1
aI1
aI3
aI6
aI1
aI2
aa(lp1348
I0
aI0
aI3
aI6
aI2
aI1
aa(lp1349
I0
aI2
aI5
aI2
aI1
aI0
aa(lp1350
I0
aI1
aI5
aI4
aI0
aI1
aa(lp1351
I3
aI0
aI5
aI4
aI1
aI2
aa(lp1352
I0
aI3
aI3
aI2
aI0
aI2
aa(lp1353
I0
aI3
aI2
aI4
aI2
aI2
aa(lp1354
I2
aI2
aI3
aI6
aI1
aI2
aa(lp1355
I3
aI3
aI4
aI2
aI1
aI0
aa(lp1356
I2
aI1
aI4
aI4
aI1
aI1
aa(lp1357
I2
aI2
aI3
aI6
aI2
aI0
aa(lp1358
I1
aI3
aI4
aI6
aI1
aI2
aa(lp1359
I1
aI0
aI4
aI6
aI2
aI1
aa(lp1360
I1
aI0
aI4
aI4
aI0
aI2
aa(lp1361
I2
aI0
aI5
aI2
aI1
aI2
aa(lp1362
I2
aI0
aI2
aI2
aI2
aI1
aa(lp1363
I2
aI0
aI4
aI2
aI0
aI1
aa(lp1364
I2
aI0
aI4
aI6
aI0
aI0
aa(lp1365
I2
aI3
aI4
aI6
aI0
aI0
aa(lp1366
I3
aI0
aI3
aI2
aI0
aI2
aa(lp1367
I0
aI1
aI5
aI4
aI2
aI0
aa(lp1368
I3
aI2
aI3
aI2
aI0
aI0
aa(lp1369
I2
aI0
aI5
aI6
aI1
aI2
aa(lp1370
I0
aI1
aI4
aI6
aI2
aI1
aa(lp1371
I1
aI0
aI2
aI6
aI2
aI1
aa(lp1372
I0
aI1
aI4
aI6
aI0
aI0
aa(lp1373
I2
aI2
aI2
aI4
aI0
aI1
aa(lp1374
I3
aI1
aI2
aI4
aI2
aI2
aa(lp1375
I0
aI2
aI2
aI2
aI1
aI0
aa(lp1376
I2
aI3
aI3
aI4
aI1
aI0
aa(lp1377
I3
aI1
aI3
aI2
aI0
aI0
aa(lp1378
I1
aI3
aI4
aI6
aI2
aI2
aa(lp1379
I1
aI0
aI2
aI2
aI2
aI2
aa(lp1380
I2
aI3
aI4
aI4
aI0
aI2
aa(lp1381
I2
aI3
aI4
aI2
aI1
aI1
aa(lp1382
I1
aI3
aI5
aI2
aI2
aI2
aa(lp1383
I1
aI1
aI3
aI6
aI2
aI0
aa(lp1384
I2
aI1
aI4
aI4
aI2
aI0
aa(lp1385
I2
aI3
aI4
aI2
aI0
aI0
aa(lp1386
I0
aI0
aI3
aI6
aI0
aI0
aa(lp1387
I0
aI2
aI5
aI2
aI1
aI1
aa(lp1388
I2
aI2
aI4
aI2
aI2
aI1
aa(lp1389
I3
aI2
aI4
aI6
aI1
aI2
aa(lp1390
I0
aI2
aI4
aI4
aI2
aI2
aa(lp1391
I2
aI1
aI4
aI2
aI0
aI2
aa(lp1392
I3
aI0
aI2
aI2
aI1
aI0
aa(lp1393
I0
aI0
aI3
aI6
aI1
aI0
aa(lp1394
I3
aI2
aI3
aI4
aI1
aI2
aa(lp1395
I3
aI3
aI3
aI2
aI1
aI1
aa(lp1396
I2
aI0
aI2
aI4
aI1
aI2
aa(lp1397
I2
aI3
aI2
aI4
aI2
aI2
aa(lp1398
I3
aI3
aI3
aI2
aI0
aI1
aa(lp1399
I3
aI3
aI2
aI6
aI0
aI2
aa(lp1400
I3
aI3
aI2
aI2
aI1
aI2
aa(lp1401
I1
aI2
aI3
aI2
aI2
aI2
aa(lp1402
I0
aI3
aI3
aI2
aI0
aI1
aa(lp1403
I3
aI0
aI4
aI4
aI0
aI1
aa(lp1404
I1
aI0
aI4
aI4
aI2
aI2
aa(lp1405
I0
aI1
aI2
aI2
aI2
aI0
aa(lp1406
I2
aI3
aI5
aI4
aI1
aI0
aa(lp1407
I0
aI3
aI2
aI2
aI1
aI0
aa(lp1408
I0
aI1
aI3
aI4
aI0
aI1
aa(lp1409
I3
aI1
aI2
aI2
aI1
aI2
aa(lp1410
I1
aI0
aI2
aI2
aI0
aI2
aa(lp1411
I2
aI2
aI2
aI6
aI1
aI2
aa(lp1412
I3
aI0
aI4
aI6
aI1
aI0
aa(lp1413
I2
aI1
aI3
aI6
aI2
aI1
aa(lp1414
I2
aI3
aI5
aI2
aI0
aI0
aa(lp1415
I0
aI1
aI5
aI4
aI2
aI2
aa(lp1416
I1
aI1
aI3
aI6
aI2
aI1
aa(lp1417
I0
aI3
aI3
aI2
aI2
aI0
aa(lp1418
I3
aI1
aI2
aI2
aI2
aI1
aa(lp1419
I1
aI1
aI4
aI6
aI2
aI1
aa(lp1420
I1
aI0
aI2
aI6
aI1
aI2
aa(lp1421
I0
aI0
aI3
aI2
aI1
aI1
aa(lp1422
I2
aI3
aI3
aI6
aI2
aI1
aa(lp1423
I0
aI2
aI4
aI6
aI2
aI2
aa(lp1424
I0
aI3
aI2
aI4
aI1
aI2
aa(lp1425
I2
aI2
aI5
aI2
aI1
aI0
aa(lp1426
I3
aI3
aI3
aI6
aI1
aI0
aa(lp1427
I1
aI2
aI2
aI2
aI1
aI0
aa(lp1428
I3
aI2
aI3
aI6
aI0
aI1
aa(lp1429
I3
aI3
aI4
aI4
aI2
aI1
aa(lp1430
I2
aI2
aI5
aI2
aI0
aI2
aa(lp1431
I0
aI3
aI3
aI2
aI2
aI2
aa(lp1432
I3
aI3
aI4
aI6
aI0
aI0
aa(lp1433
I1
aI0
aI3
aI2
aI1
aI0
aa(lp1434
I0
aI2
aI3
aI4
aI1
aI2
aa(lp1435
I1
aI2
aI5
aI4
aI1
aI0
aa(lp1436
I0
aI1
aI5
aI2
aI0
aI2
aa(lp1437
I1
aI2
aI4
aI2
aI2
aI1
aa(lp1438
I2
aI1
aI5
aI6
aI1
aI1
aa(lp1439
I3
aI0
aI5
aI6
aI1
aI0
aa(lp1440
I3
aI2
aI5
aI4
aI1
aI1
aa(lp1441
I0
aI2
aI4
aI6
aI2
aI1
aa(lp1442
I3
aI1
aI5
aI6
aI0
aI2
aa(lp1443
I2
aI3
aI5
aI2
aI1
aI1
aa(lp1444
I2
aI0
aI4
aI6
aI0
aI2
aa(lp1445
I1
aI3
aI2
aI6
aI0
aI2
aa(lp1446
I1
aI2
aI3
aI2
aI0
aI2
aa(lp1447
I3
aI0
aI2
aI2
aI1
aI2
aa(lp1448
I3
aI1
aI5
aI4
aI2
aI2
aa(lp1449
I3
aI0
aI4
aI4
aI0
aI0
aa(lp1450
I1
aI2
aI2
aI2
aI2
aI2
aa(lp1451
I0
aI0
aI5
aI4
aI2
aI2
aa(lp1452
I0
aI2
aI4
aI4
aI0
aI1
aa(lp1453
I1
aI3
aI2
aI2
aI2
aI1
aa(lp1454
I3
aI1
aI3
aI4
aI2
aI0
aa(lp1455
I0
aI1
aI4
aI4
aI2
aI0
aa(lp1456
I1
aI2
aI2
aI6
aI2
aI1
aa(lp1457
I0
aI1
aI2
aI4
aI1
aI2
aa(lp1458
I0
aI1
aI3
aI6
aI1
aI2
aa(lp1459
I0
aI0
aI4
aI4
aI2
aI1
aa(lp1460
I1
aI1
aI2
aI4
aI0
aI1
aa(lp1461
I2
aI2
aI2
aI6
aI1
aI0
aa(lp1462
I1
aI1
aI3
aI4
aI1
aI0
aa(lp1463
I1
aI0
aI3
aI4
aI1
aI0
aa(lp1464
I3
aI1
aI3
aI2
aI2
aI1
aa(lp1465
I1
aI3
aI2
aI4
aI2
aI0
aa(lp1466
I2
aI1
aI2
aI6
aI1
aI1
aa(lp1467
I3
aI1
aI3
aI6
aI2
aI0
aa(lp1468
I2
aI1
aI2
aI2
aI0
aI2
aa(lp1469
I3
aI2
aI2
aI6
aI1
aI2
aa(lp1470
I1
aI1
aI5
aI4
aI0
aI2
aa(lp1471
I0
aI1
aI2
aI2
aI0
aI0
aa(lp1472
I3
aI1
aI5
aI2
aI1
aI2
aa(lp1473
I0
aI2
aI4
aI6
aI1
aI0
aa(lp1474
I3
aI0
aI2
aI2
aI1
aI1
aa(lp1475
I3
aI1
aI5
aI4
aI1
aI1
aa(lp1476
I2
aI3
aI2
aI2
aI2
aI2
aa(lp1477
I1
aI1
aI3
aI6
aI0
aI0
aa(lp1478
I3
aI1
aI2
aI4
aI0
aI1
aa(lp1479
I1
aI3
aI3
aI4
aI1
aI1
aa(lp1480
I1
aI2
aI3
aI4
aI1
aI0
aa(lp1481
I2
aI3
aI5
aI4
aI1
aI1
aa(lp1482
I3
aI3
aI3
aI6
aI1
aI2
aa(lp1483
I1
aI2
aI4
aI6
aI2
aI2
aa(lp1484
I1
aI1
aI2
aI2
aI2
aI0
aa(lp1485
I2
aI3
aI3
aI4
aI0
aI0
aa(lp1486
I1
aI1
aI4
aI6
aI0
aI0
aa(lp1487
I2
aI0
aI2
aI6
aI0
aI0
aa(lp1488
I3
aI1
aI2
aI6
aI1
aI0
aa(lp1489
I1
aI3
aI3
aI6
aI2
aI2
aa(lp1490
I1
aI0
aI4
aI2
aI0
aI2
aa(lp1491
I3
aI0
aI2
aI4
aI2
aI1
aa(lp1492
I1
aI0
aI5
aI4
aI0
aI2
aa(lp1493
I1
aI1
aI5
aI4
aI2
aI0
aa(lp1494
I1
aI0
aI4
aI2
aI2
aI2
aa(lp1495
I0
aI3
aI3
aI6
aI1
aI0
aa(lp1496
I1
aI2
aI4
aI2
aI1
aI0
aa(lp1497
I1
aI2
aI2
aI2
aI2
aI1
aa(lp1498
I0
aI1
aI3
aI2
aI0
aI0
aa(lp1499
I2
aI1
aI5
aI2
aI2
aI0
aa(lp1500
I3
aI1
aI2
aI2
aI1
aI1
aa(lp1501
I1
aI3
aI2
aI6
aI2
aI2
aa(lp1502
I3
aI1
aI3
aI6
aI0
aI0
aa(lp1503
I2
aI0
aI2
aI6
aI2
aI1
aa(lp1504
I1
aI0
aI4
aI6
aI0
aI2
aa(lp1505
I0
aI0
aI2
aI2
aI2
aI2
aa(lp1506
I3
aI3
aI5
aI2
aI1
aI0
aa(lp1507
I2
aI3
aI3
aI2
aI0
aI1
aa(lp1508
I1
aI2
aI2
aI6
aI1
aI0
aa(lp1509
I2
aI1
aI5
aI2
aI2
aI1
aa(lp1510
I3
aI0
aI4
aI4
aI2
aI0
aa(lp1511
I2
aI3
aI5
aI4
aI0
aI2
aa(lp1512
I3
aI2
aI2
aI2
aI2
aI1
aa(lp1513
I3
aI1
aI4
aI2
aI0
aI0
aa(lp1514
I0
aI1
aI5
aI6
aI0
aI2
aa(lp1515
I0
aI2
aI3
aI2
aI1
aI2
aa(lp1516
I0
aI2
aI5
aI4
aI2
aI0
aa(lp1517
I0
aI1
aI2
aI6
aI0
aI0
aa(lp1518
I1
aI1
aI2
aI6
aI1
aI2
aa(lp1519
I1
aI0
aI2
aI2
aI0
aI1
aa(lp1520
I2
aI0
aI5
aI2
aI1
aI1
aa(lp1521
I2
aI0
aI4
aI2
aI1
aI1
aa(lp1522
I2
aI3
aI2
aI4
aI2
aI0
aa(lp1523
I0
aI3
aI3
aI4
aI0
aI2
aa(lp1524
I2
aI3
aI4
aI2
aI2
aI1
aa(lp1525
I1
aI2
aI4
aI4
aI0
aI2
aa(lp1526
I1
aI3
aI4
aI2
aI0
aI0
aa(lp1527
I1
aI0
aI4
aI2
aI2
aI0
aa(lp1528
I2
aI0
aI5
aI6
aI0
aI2
aa(lp1529
I2
aI1
aI3
aI4
aI1
aI0
aa(lp1530
I0
aI2
aI3
aI2
aI0
aI1
aa(lp1531
I3
aI3
aI4
aI2
aI2
aI2
aa(lp1532
I3
aI1
aI5
aI2
aI0
aI1
aa(lp1533
I3
aI3
aI5
aI2
aI1
aI2
aa(lp1534
I0
aI2
aI3
aI2
aI1
aI0
aa(lp1535
I0
aI3
aI5
aI6
aI1
aI2
aa(lp1536
I3
aI1
aI4
aI6
aI0
aI0
aa(lp1537
I1
aI3
aI4
aI4
aI2
aI0
aa(lp1538
I2
aI2
aI3
aI6
aI2
aI2
aa(lp1539
I0
aI1
aI4
aI6
aI1
aI0
aa(lp1540
I1
aI2
aI3
aI4
aI2
aI1
aa(lp1541
I1
aI0
aI2
aI2
aI2
aI1
aa(lp1542
I1
aI3
aI3
aI6
aI0
aI1
aa(lp1543
I1
aI3
aI5
aI2
aI0
aI1
aa(lp1544
I0
aI0
aI3
aI2
aI2
aI1
aa(lp1545
I3
aI2
aI3
aI6
aI0
aI2
aa(lp1546
I1
aI3
aI2
aI2
aI1
aI1
aa(lp1547
I0
aI3
aI4
aI2
aI2
aI2
aa(lp1548
I2
aI0
aI5
aI2
aI0
aI1
aa(lp1549
I2
aI3
aI5
aI2
aI2
aI0
aa(lp1550
I1
aI0
aI2
aI4
aI2
aI1
aa(lp1551
I0
aI2
aI4
aI6
aI2
aI0
aa(lp1552
I1
aI0
aI2
aI6
aI2
aI2
aa(lp1553
I3
aI3
aI2
aI2
aI1
aI1
aaa(lp1554
(lp1555
I1
aI0
aI0
aI0
aag1555
ag1555
ag1555
a(lp1556
I0
aI1
aI0
aI0
aag1555
ag1555
a(lp1557
I0
aI0
aI1
aI0
aag1555
ag1555
ag1556
ag1555
ag1557
ag1555
ag1556
ag1555
ag1555
ag1556
ag1555
ag1555
ag1556
ag1556
ag1555
ag1555
ag1557
ag1555
ag1556
ag1555
ag1555
ag1555
ag1555
ag1555
ag1555
ag1555
ag1555
ag1555
ag1555
ag1557
ag1555
ag1555
ag1555
ag1555
ag1556
ag1555
ag1555
ag1555
ag1555
ag1555
ag1555
ag1555
ag1556
ag1555
ag1555
ag1556
ag1555
ag1556
ag1556
ag1556
ag1555
ag1555
ag1555
ag1557
ag1556
ag1555
ag1555
ag1555
ag1555
ag1557
ag1557
ag1555
ag1555
ag1556
ag1555
ag1555
ag1555
ag1556
ag1555
ag1555
ag1555
ag1555
ag1555
ag1555
ag1555
ag1555
ag1555
ag1556
ag1555
a(lp1558
I0
aI0
aI0
aI1
aag1555
ag1555
ag1555
ag1555
ag1555
ag1555
ag1555
ag1556
ag1555
ag1555
ag1556
ag1555
ag1555
ag1556
ag1555
ag1556
ag1555
ag1555
ag1558
ag1555
ag1556
ag1555
ag1555
ag1557
ag1555
ag1555
ag1555
ag1555
ag1558
ag1555
ag1556
ag1555
ag1555
ag1555
ag1555
ag1557
ag1556
ag1555
ag1555
ag1555
ag1555
ag1555
ag1555
ag1556
ag1555
ag1556
ag1555
ag1556
ag1556
ag1555
ag1557
ag1555
ag1558
ag1555
ag1555
ag1555
ag1556
ag1555
ag1555
ag1555
ag1556
ag1558
ag1555
ag1555
ag1558
ag1555
ag1555
ag1555
ag1555
ag1555
ag1555
ag1555
ag1555
ag1555
ag1555
ag1556
ag1557
ag1556
ag1556
ag1555
ag1556
ag1556
ag1555
ag1555
ag1556
ag1555
ag1555
ag1555
ag1555
ag1555
ag1555
ag1555
ag1555
ag1555
ag1555
ag1556
ag1555
ag1555
ag1555
ag1557
ag1556
ag1556
ag1555
ag1555
ag1555
ag1557
ag1557
ag1556
ag1555
ag1555
ag1555
ag1556
ag1555
ag1556
ag1555
ag1555
ag1558
ag1557
ag1555
ag1556
ag1556
ag1556
ag1556
ag1555
ag1557
ag1556
ag1555
ag1555
ag1556
ag1555
ag1555
ag1555
ag1556
ag1555
ag1555
ag1555
ag1555
ag1556
ag1555
ag1555
ag1555
ag1556
ag1556
ag1557
ag1555
ag1556
ag1555
ag1556
ag1555
ag1556
ag1555
ag1556
ag1555
ag1555
ag1555
ag1557
ag1555
ag1555
ag1555
ag1555
ag1555
ag1555
ag1555
ag1555
ag1555
ag1555
ag1555
ag1555
ag1555
ag1555
ag1556
ag1555
ag1555
ag1555
ag1555
ag1555
ag1556
ag1555
ag1555
ag1555
ag1555
ag1555
ag1555
ag1555
ag1555
ag1555
ag1555
ag1555
ag1555
ag1558
ag1556
ag1558
ag1555
ag1556
ag1557
ag1556
ag1557
ag1555
ag1556
ag1555
ag1555
ag1555
ag1555
ag1556
ag1555
ag1555
ag1556
ag1555
ag1555
ag1555
ag1555
ag1555
ag1555
ag1555
ag1555
ag1556
ag1555
ag1555
ag1556
ag1555
ag1556
ag1555
ag1555
ag1556
ag1556
ag1555
ag1556
ag1555
ag1555
ag1558
ag1556
ag1555
ag1555
ag1555
ag1556
ag1556
ag1555
ag1555
ag1555
ag1555
ag1556
ag1556
ag1555
ag1555
ag1555
ag1556
ag1555
ag1555
ag1556
ag1555
ag1556
ag1555
ag1555
ag1558
ag1555
ag1556
ag1555
ag1555
ag1556
ag1558
ag1555
ag1555
ag1555
ag1555
ag1555
ag1557
ag1555
ag1555
ag1555
ag1555
ag1558
ag1555
ag1556
ag1556
ag1555
ag1555
ag1555
ag1555
ag1555
ag1556
ag1555
ag1557
ag1555
ag1555
ag1555
ag1555
ag1556
ag1555
ag1555
ag1555
ag1556
ag1556
ag1555
ag1555
ag1555
ag1555
ag1555
ag1555
ag1555
ag1555
ag1555
ag1555
ag1555
ag1555
ag1555
ag1555
ag1555
ag1555
ag1555
ag1555
ag1555
ag1555
ag1555
ag1555
ag1556
ag1555
ag1555
ag1555
ag1555
ag1556
ag1556
ag1556
ag1555
ag1555
ag1555
ag1555
ag1555
ag1555
ag1555
ag1556
ag1556
ag1556
ag1555
ag1555
ag1555
ag1556
ag1555
ag1556
ag1555
ag1555
ag1555
ag1555
ag1555
ag1555
ag1555
ag1555
ag1555
ag1556
ag1555
ag1556
ag1555
ag1556
ag1555
ag1556
ag1555
ag1556
ag1558
ag1555
ag1555
ag1555
ag1555
ag1556
ag1555
ag1555
ag1555
ag1555
ag1555
ag1555
ag1555
ag1556
ag1558
ag1555
ag1556
ag1556
ag1555
ag1555
ag1555
ag1555
ag1556
ag1555
ag1555
ag1555
ag1555
ag1556
ag1555
ag1557
ag1556
ag1555
ag1555
ag1555
ag1555
ag1555
ag1555
ag1556
ag1555
ag1555
ag1556
ag1555
ag1556
ag1556
ag1555
ag1555
ag1555
ag1556
ag1555
ag1558
ag1555
ag1556
ag1556
ag1555
ag1555
ag1555
ag1556
ag1555
ag1555
ag1556
ag1555
ag1555
ag1555
ag1555
ag1556
ag1555
ag1555
ag1556
ag1556
ag1556
ag1555
ag1555
ag1555
ag1555
ag1555
ag1557
ag1556
ag1555
ag1555
ag1555
ag1555
ag1555
ag1555
ag1556
ag1555
ag1555
ag1556
ag1556
ag1556
ag1555
ag1556
ag1555
ag1555
ag1555
ag1556
ag1555
ag1558
ag1555
ag1555
ag1557
ag1555
ag1558
ag1555
ag1556
ag1558
ag1555
ag1556
ag1555
ag1555
ag1557
ag1555
ag1558
ag1555
ag1556
ag1555
ag1555
ag1555
ag1555
ag1555
ag1555
ag1555
ag1555
ag1555
ag1555
ag1555
ag1556
ag1555
ag1556
ag1556
ag1555
ag1555
ag1555
ag1556
ag1556
ag1555
ag1555
ag1555
ag1555
ag1555
ag1556
ag1555
ag1555
ag1555
ag1555
ag1555
ag1556
ag1555
ag1555
ag1555
ag1555
ag1555
ag1555
ag1556
ag1556
ag1555
ag1555
ag1555
ag1555
ag1555
ag1555
ag1556
ag1555
ag1556
ag1555
ag1556
ag1556
ag1556
ag1555
ag1555
ag1555
ag1556
ag1555
ag1556
ag1557
ag1555
ag1555
ag1555
ag1555
ag1555
ag1555
ag1556
ag1556
ag1555
ag1555
ag1555
ag1558
ag1555
ag1555
ag1555
ag1555
ag1555
ag1556
ag1555
ag1555
ag1555
ag1555
ag1556
ag1555
ag1555
ag1555
ag1555
ag1556
ag1555
ag1555
ag1556
ag1555
ag1556
ag1555
ag1558
ag1556
ag1555
ag1555
ag1555
ag1555
ag1555
ag1555
ag1555
ag1555
ag1556
ag1555
ag1555
ag1555
ag1555
ag1556
ag1555
ag1556
ag1555
ag1556
ag1556
ag1556
ag1555
ag1555
ag1555
ag1556
ag1555
ag1555
ag1558
ag1555
ag1555
ag1555
ag1555
ag1555
ag1555
ag1558
ag1555
ag1555
ag1555
ag1555
ag1556
ag1555
ag1556
ag1556
ag1556
ag1555
ag1556
ag1556
ag1555
ag1555
ag1555
ag1556
ag1555
ag1555
ag1555
ag1555
ag1555
ag1555
ag1555
ag1555
ag1555
ag1555
ag1555
ag1555
ag1556
ag1556
ag1556
ag1555
ag1555
ag1558
ag1555
ag1555
ag1558
ag1555
ag1555
ag1555
ag1555
ag1556
ag1556
ag1555
ag1555
ag1556
ag1556
ag1555
ag1555
ag1555
ag1555
ag1556
ag1555
ag1555
ag1556
ag1555
ag1555
ag1555
ag1558
ag1555
ag1555
ag1556
ag1555
ag1555
ag1555
ag1555
ag1557
ag1555
ag1555
ag1555
ag1555
ag1555
ag1555
ag1558
ag1555
ag1556
ag1556
ag1555
ag1555
ag1556
ag1555
ag1555
ag1555
ag1555
ag1555
ag1555
ag1555
ag1555
ag1555
ag1555
ag1555
ag1555
ag1555
ag1555
ag1555
ag1555
ag1555
ag1555
ag1555
ag1555
ag1556
ag1556
ag1555
ag1555
ag1556
ag1556
ag1556
ag1556
ag1555
ag1555
ag1556
ag1555
ag1555
ag1555
ag1555
ag1556
ag1555
ag1555
ag1556
ag1556
ag1555
ag1555
ag1556
ag1555
ag1558
ag1555
ag1555
ag1557
ag1555
ag1555
ag1555
ag1555
ag1555
ag1555
ag1555
ag1556
ag1555
ag1555
ag1555
ag1555
ag1556
ag1555
ag1558
ag1555
ag1556
ag1555
ag1555
ag1555
ag1555
ag1556
ag1555
ag1558
ag1555
ag1555
ag1555
ag1555
ag1556
ag1555
ag1556
ag1558
ag1555
ag1558
ag1555
ag1556
ag1555
ag1555
ag1555
ag1555
ag1555
ag1555
ag1555
ag1555
ag1555
ag1555
ag1555
ag1556
ag1555
ag1555
ag1556
ag1555
ag1558
ag1555
ag1555
ag1556
ag1555
ag1555
ag1555
ag1555
ag1555
ag1555
ag1555
ag1555
ag1556
ag1556
ag1557
ag1555
ag1556
ag1555
ag1555
ag1555
ag1555
ag1555
ag1555
ag1555
ag1555
ag1555
ag1555
ag1556
ag1555
ag1555
ag1555
ag1556
ag1555
ag1555
ag1555
ag1555
ag1555
ag1556
ag1555
ag1555
ag1555
ag1556
ag1555
ag1555
ag1555
ag1555
ag1555
ag1556
ag1555
ag1556
ag1556
ag1555
ag1555
ag1557
ag1555
ag1556
ag1555
ag1556
ag1555
ag1558
ag1555
ag1556
ag1555
ag1556
ag1556
ag1555
ag1555
ag1556
ag1556
ag1555
ag1555
ag1555
ag1555
ag1555
ag1555
ag1555
ag1555
ag1555
ag1555
ag1555
ag1555
ag1555
ag1555
ag1556
ag1556
ag1555
ag1555
ag1555
ag1555
ag1556
ag1555
ag1555
ag1555
ag1555
ag1555
ag1555
ag1555
ag1555
ag1555
ag1555
ag1555
ag1555
ag1555
ag1555
ag1556
ag1555
ag1556
ag1555
ag1555
ag1555
ag1555
ag1557
ag1555
ag1555
ag1555
ag1555
ag1556
ag1555
ag1555
ag1555
ag1555
ag1555
ag1555
ag1555
ag1555
ag1555
ag1555
ag1555
ag1555
ag1555
ag1555
ag1555
ag1558
ag1555
ag1557
ag1555
ag1555
ag1555
ag1555
ag1556
ag1555
ag1555
ag1557
ag1556
ag1555
ag1555
ag1556
ag1555
ag1555
ag1556
ag1555
ag1555
ag1555
ag1555
ag1556
ag1555
ag1555
ag1558
ag1555
ag1555
ag1555
ag1555
ag1558
ag1555
ag1555
ag1556
ag1556
ag1555
ag1556
ag1555
ag1557
ag1556
ag1556
ag1555
ag1556
ag1555
ag1555
ag1555
ag1555
ag1556
ag1555
ag1556
ag1556
ag1555
ag1556
ag1555
ag1555
ag1555
ag1555
ag1555
ag1555
ag1555
ag1555
ag1555
ag1556
ag1555
ag1555
ag1558
ag1555
ag1555
ag1556
ag1555
ag1555
ag1555
ag1556
ag1555
ag1555
ag1555
ag1555
ag1555
ag1555
ag1555
ag1555
ag1556
ag1556
ag1555
ag1556
ag1556
ag1556
ag1556
ag1555
ag1556
ag1555
ag1555
ag1555
ag1555
ag1555
ag1555
ag1555
ag1558
ag1556
ag1555
ag1555
ag1555
ag1555
ag1555
ag1556
ag1556
ag1555
ag1555
ag1555
ag1555
ag1556
ag1555
ag1555
ag1555
ag1556
ag1555
ag1555
ag1555
ag1555
ag1557
ag1555
ag1555
ag1555
ag1557
ag1555
ag1555
ag1555
ag1555
ag1555
ag1558
ag1555
ag1555
ag1555
ag1556
ag1555
ag1555
ag1555
ag1555
ag1555
ag1556
ag1557
ag1555
ag1555
ag1555
ag1557
ag1556
ag1555
ag1555
ag1555
ag1555
ag1556
ag1555
ag1556
ag1555
ag1555
ag1556
ag1556
ag1555
ag1555
ag1555
ag1556
ag1555
ag1555
ag1555
ag1555
ag1555
ag1555
ag1556
ag1556
ag1555
ag1555
ag1555
ag1557
ag1555
ag1555
ag1556
ag1556
ag1555
ag1555
ag1555
ag1555
ag1555
ag1555
ag1555
ag1555
ag1555
ag1558
ag1555
ag1555
ag1555
ag1557
ag1555
ag1556
ag1555
ag1555
ag1556
ag1555
ag1555
ag1557
ag1555
ag1555
ag1555
ag1556
ag1555
ag1555
ag1555
ag1555
ag1558
ag1555
ag1558
ag1555
ag1556
ag1555
ag1557
ag1555
ag1555
ag1555
ag1555
ag1556
ag1555
ag1557
ag1555
ag1555
ag1557
ag1555
ag1555
ag1556
ag1555
ag1555
ag1556
ag1556
ag1555
ag1556
ag1556
ag1555
ag1555
ag1556
ag1555
ag1555
ag1555
ag1555
ag1555
ag1556
ag1558
ag1556
ag1556
ag1558
ag1556
ag1556
ag1555
ag1555
ag1555
ag1556
ag1556
ag1556
ag1555
ag1555
ag1557
ag1557
ag1555
ag1556
ag1555
ag1557
ag1555
ag1555
ag1556
ag1555
ag1555
ag1555
ag1558
ag1555
ag1555
ag1555
ag1556
ag1555
ag1556
ag1555
ag1556
ag1558
ag1555
ag1555
ag1555
ag1558
ag1556
ag1555
ag1555
ag1555
ag1555
ag1555
ag1556
ag1555
ag1555
ag1555
ag1556
ag1556
ag1556
ag1555
ag1558
ag1556
ag1555
ag1555
ag1555
ag1556
ag1556
ag1555
ag1555
ag1555
ag1556
ag1555
ag1558
ag1557
ag1555
ag1555
ag1556
ag1555
ag1555
ag1555
ag1556
ag1555
ag1555
ag1555
ag1555
ag1555
ag1555
ag1555
ag1555
ag1555
ag1555
ag1558
ag1555
ag1555
ag1555
ag1558
ag1555
ag1555
ag1555
ag1555
ag1555
ag1558
ag1555
ag1557
ag1555
ag1555
ag1555
ag1555
ag1558
ag1557
ag1555
ag1556
ag1556
ag1555
ag1556
ag1556
ag1555
ag1556
ag1555
ag1556
ag1557
ag1557
ag1555
ag1555
ag1555
ag1555
ag1555
ag1555
ag1555
ag1555
ag1556
ag1557
ag1557
ag1555
ag1555
ag1556
ag1555
ag1555
ag1555
ag1556
ag1555
ag1555
ag1555
ag1555
ag1555
ag1555
ag1555
ag1555
ag1555
ag1555
ag1555
ag1558
ag1555
ag1555
ag1555
ag1555
ag1555
ag1556
ag1555
ag1555
ag1555
ag1555
ag1555
ag1555
ag1555
ag1558
ag1555
ag1555
ag1555
ag1556
ag1555
ag1555
ag1556
ag1555
ag1556
ag1555
ag1558
ag1556
ag1555
ag1555
ag1556
ag1557
ag1555
ag1555
ag1558
ag1556
ag1555
ag1555
ag1555
ag1555
ag1555
ag1555
ag1555
ag1555
ag1555
ag1556
ag1555
ag1555
ag1555
ag1556
ag1555
ag1555
ag1556
ag1556
ag1555
ag1556
ag1555
ag1555
ag1555
ag1556
ag1555
ag1555
ag1558
ag1556
ag1555
ag1555
ag1555
ag1556
ag1557
ag1558
ag1557
ag1556
ag1555
ag1555
ag1555
ag1555
ag1555
ag1555
ag1555
ag1555
ag1555
ag1556
ag1555
ag1555
ag1555
ag1555
ag1556
ag1555
ag1555
ag1555
ag1555
ag1555
ag1555
ag1555
ag1556
ag1555
ag1555
ag1555
ag1555
ag1555
ag1556
ag1555
ag1556
ag1557
ag1555
ag1555
ag1555
ag1555
ag1555
ag1555
ag1555
ag1555
ag1556
ag1555
ag1556
ag1557
ag1555
ag1555
ag1555
ag1555
ag1555
ag1555
ag1555
ag1555
ag1555
ag1557
ag1555
ag1555
ag1555
ag1556
ag1555
ag1555
ag1555
ag1555
ag1556
ag1555
ag1556
ag1555
ag1555
ag1556
ag1555
ag1555
ag1555
ag1555
ag1555
ag1555
ag1556
ag1555
ag1555
ag1556
ag1555
ag1556
ag1555
ag1555
ag1555
ag1555
ag1555
ag1555
ag1555
ag1555
ag1555
ag1557
ag1555
ag1558
ag1555
aa(lp1559
(lp1560
I0
aI0
aI5
aI6
aI0
aI0
aa(lp1561
I0
aI1
aI4
aI4
aI0
aI1
aa(lp1562
I2
aI1
aI5
aI4
aI1
aI1
aa(lp1563
I3
aI2
aI2
aI4
aI0
aI0
aa(lp1564
I1
aI2
aI5
aI2
aI2
aI0
aa(lp1565
I1
aI2
aI2
aI2
aI1
aI2
aa(lp1566
I1
aI2
aI5
aI4
aI2
aI1
aa(lp1567
I0
aI0
aI2
aI6
aI0
aI1
aa(lp1568
I1
aI0
aI5
aI6
aI0
aI0
aa(lp1569
I3
aI1
aI3
aI2
aI1
aI2
aa(lp1570
I0
aI1
aI3
aI4
aI0
aI2
aa(lp1571
I2
aI2
aI3
aI2
aI0
aI2
aa(lp1572
I2
aI3
aI3
aI2
aI2
aI2
aa(lp1573
I1
aI1
aI2
aI6
aI1
aI0
aa(lp1574
I1
aI0
aI2
aI6
aI1
aI1
aa(lp1575
I0
aI1
aI5
aI4
aI1
aI1
aa(lp1576
I1
aI1
aI2
aI2
aI0
aI2
aa(lp1577
I1
aI1
aI3
aI6
aI1
aI0
aa(lp1578
I0
aI0
aI2
aI4
aI1
aI0
aa(lp1579
I2
aI1
aI5
aI6
aI2
aI1
aa(lp1580
I2
aI1
aI3
aI6
aI2
aI2
aa(lp1581
I0
aI3
aI4
aI4
aI0
aI0
aa(lp1582
I1
aI0
aI3
aI2
aI1
aI1
aa(lp1583
I1
aI3
aI2
aI4
aI1
aI1
aa(lp1584
I0
aI0
aI5
aI4
aI2
aI1
aa(lp1585
I1
aI3
aI2
aI6
aI0
aI0
aa(lp1586
I3
aI2
aI4
aI6
aI0
aI2
aa(lp1587
I3
aI3
aI3
aI6
aI2
aI2
aa(lp1588
I2
aI0
aI3
aI4
aI2
aI0
aa(lp1589
I2
aI2
aI4
aI4
aI2
aI2
aa(lp1590
I2
aI0
aI5
aI4
aI1
aI1
aa(lp1591
I0
aI0
aI5
aI2
aI2
aI0
aa(lp1592
I1
aI0
aI5
aI2
aI1
aI2
aa(lp1593
I0
aI3
aI5
aI6
aI1
aI0
aa(lp1594
I1
aI2
aI5
aI2
aI1
aI2
aa(lp1595
I0
aI3
aI5
aI2
aI0
aI0
aa(lp1596
I0
aI2
aI2
aI4
aI0
aI2
aa(lp1597
I3
aI3
aI2
aI6
aI2
aI1
aa(lp1598
I0
aI2
aI3
aI2
aI2
aI2
aa(lp1599
I3
aI2
aI3
aI4
aI0
aI1
aa(lp1600
I3
aI0
aI3
aI6
aI2
aI1
aa(lp1601
I2
aI0
aI2
aI4
aI2
aI0
aa(lp1602
I2
aI1
aI2
aI2
aI2
aI1
aa(lp1603
I1
aI1
aI5
aI6
aI0
aI0
aa(lp1604
I0
aI0
aI4
aI4
aI1
aI0
aa(lp1605
I2
aI2
aI3
aI4
aI0
aI0
aa(lp1606
I3
aI2
aI2
aI6
aI2
aI0
aa(lp1607
I1
aI3
aI4
aI4
aI0
aI2
aa(lp1608
I3
aI3
aI4
aI4
aI0
aI0
aa(lp1609
I0
aI3
aI5
aI4
aI1
aI0
aa(lp1610
I0
aI1
aI2
aI2
aI1
aI1
aa(lp1611
I2
aI2
aI2
aI4
aI2
aI1
aa(lp1612
I2
aI3
aI3
aI4
aI1
aI1
aa(lp1613
I1
aI0
aI5
aI6
aI0
aI2
aa(lp1614
I2
aI1
aI2
aI6
aI2
aI0
aa(lp1615
I1
aI1
aI4
aI4
aI0
aI0
aa(lp1616
I2
aI1
aI2
aI4
aI0
aI0
aa(lp1617
I2
aI0
aI4
aI4
aI0
aI1
aa(lp1618
I2
aI1
aI3
aI2
aI2
aI1
aa(lp1619
I3
aI2
aI5
aI4
aI0
aI1
aa(lp1620
I3
aI0
aI4
aI4
aI2
aI2
aa(lp1621
I1
aI3
aI3
aI4
aI0
aI2
aa(lp1622
I3
aI1
aI2
aI2
aI0
aI0
aa(lp1623
I0
aI2
aI5
aI6
aI1
aI0
aa(lp1624
I2
aI0
aI4
aI4
aI1
aI2
aa(lp1625
I3
aI3
aI2
aI6
aI0
aI1
aa(lp1626
I3
aI1
aI2
aI6
aI2
aI1
aa(lp1627
I0
aI1
aI3
aI4
aI1
aI1
aa(lp1628
I1
aI3
aI3
aI4
aI2
aI2
aa(lp1629
I2
aI3
aI5
aI6
aI1
aI1
aa(lp1630
I3
aI1
aI4
aI6
aI0
aI2
aa(lp1631
I2
aI0
aI5
aI4
aI0
aI2
aa(lp1632
I3
aI0
aI4
aI2
aI0
aI2
aa(lp1633
I2
aI1
aI3
aI6
aI0
aI0
aa(lp1634
I2
aI3
aI3
aI6
aI0
aI0
aa(lp1635
I1
aI2
aI5
aI2
aI0
aI1
aa(lp1636
I1
aI0
aI5
aI4
aI0
aI0
aa(lp1637
I2
aI1
aI3
aI4
aI1
aI2
aa(lp1638
I0
aI0
aI3
aI4
aI2
aI2
aa(lp1639
I3
aI3
aI5
aI4
aI1
aI2
aa(lp1640
I0
aI3
aI5
aI2
aI1
aI2
aa(lp1641
I2
aI2
aI3
aI6
aI0
aI2
aa(lp1642
I2
aI0
aI3
aI4
aI1
aI2
aa(lp1643
I0
aI1
aI5
aI6
aI2
aI2
aa(lp1644
I0
aI0
aI4
aI2
aI1
aI1
aa(lp1645
I1
aI1
aI4
aI2
aI1
aI2
aa(lp1646
I3
aI1
aI4
aI6
aI1
aI0
aa(lp1647
I0
aI1
aI2
aI6
aI0
aI2
aa(lp1648
I0
aI2
aI5
aI2
aI2
aI2
aa(lp1649
I3
aI2
aI3
aI4
aI2
aI1
aa(lp1650
I1
aI0
aI4
aI6
aI0
aI1
aa(lp1651
I3
aI2
aI5
aI4
aI0
aI2
aa(lp1652
I3
aI2
aI2
aI6
aI0
aI2
aa(lp1653
I1
aI1
aI4
aI6
aI0
aI1
aa(lp1654
I3
aI0
aI2
aI2
aI2
aI1
aa(lp1655
I1
aI1
aI3
aI2
aI0
aI0
aa(lp1656
I2
aI2
aI5
aI4
aI0
aI0
aa(lp1657
I0
aI0
aI4
aI6
aI1
aI0
aa(lp1658
I2
aI2
aI2
aI4
aI1
aI1
aa(lp1659
I1
aI1
aI4
aI6
aI0
aI2
aa(lp1660
I1
aI0
aI3
aI6
aI2
aI0
aa(lp1661
I3
aI0
aI4
aI4
aI1
aI0
aa(lp1662
I0
aI2
aI2
aI2
aI0
aI0
aa(lp1663
I3
aI1
aI5
aI2
aI2
aI1
aa(lp1664
I0
aI2
aI5
aI6
aI1
aI1
aa(lp1665
I2
aI0
aI3
aI4
aI0
aI1
aa(lp1666
I3
aI3
aI4
aI6
aI0
aI2
aa(lp1667
I2
aI0
aI2
aI6
aI1
aI2
aa(lp1668
I3
aI1
aI2
aI6
aI1
aI1
aa(lp1669
I1
aI3
aI5
aI6
aI1
aI1
aa(lp1670
I2
aI0
aI2
aI2
aI1
aI1
aa(lp1671
I1
aI2
aI4
aI6
aI2
aI0
aa(lp1672
I0
aI1
aI3
aI6
aI2
aI1
aa(lp1673
I0
aI2
aI2
aI6
aI1
aI1
aa(lp1674
I3
aI2
aI3
aI2
aI0
aI2
aa(lp1675
I1
aI0
aI4
aI4
aI0
aI0
aa(lp1676
I0
aI0
aI2
aI4
aI0
aI0
aa(lp1677
I0
aI2
aI2
aI6
aI1
aI0
aa(lp1678
I1
aI3
aI3
aI2
aI1
aI0
aa(lp1679
I2
aI1
aI4
aI6
aI2
aI1
aa(lp1680
I3
aI1
aI3
aI2
aI1
aI1
aa(lp1681
I3
aI2
aI4
aI6
aI0
aI1
aa(lp1682
I0
aI0
aI5
aI4
aI0
aI1
aa(lp1683
I2
aI1
aI5
aI4
aI0
aI1
aa(lp1684
I1
aI1
aI2
aI2
aI1
aI1
aa(lp1685
I1
aI3
aI2
aI2
aI0
aI1
aa(lp1686
I0
aI2
aI4
aI2
aI0
aI1
aa(lp1687
I2
aI2
aI2
aI4
aI2
aI0
aa(lp1688
I1
aI1
aI3
aI4
aI2
aI1
aa(lp1689
I0
aI0
aI3
aI2
aI0
aI2
aa(lp1690
I2
aI3
aI5
aI2
aI2
aI1
aa(lp1691
I1
aI3
aI3
aI2
aI2
aI1
aa(lp1692
I3
aI2
aI5
aI6
aI2
aI0
aa(lp1693
I0
aI0
aI2
aI6
aI1
aI1
aa(lp1694
I2
aI3
aI2
aI2
aI0
aI2
aa(lp1695
I3
aI3
aI5
aI6
aI1
aI2
aa(lp1696
I1
aI0
aI4
aI2
aI1
aI0
aa(lp1697
I2
aI2
aI4
aI2
aI2
aI0
aa(lp1698
I0
aI0
aI3
aI6
aI1
aI2
aa(lp1699
I2
aI2
aI4
aI6
aI2
aI1
aa(lp1700
I3
aI0
aI2
aI4
aI0
aI1
aa(lp1701
I0
aI3
aI3
aI6
aI0
aI2
aa(lp1702
I1
aI2
aI2
aI4
aI0
aI0
aa(lp1703
I1
aI0
aI2
aI6
aI2
aI0
aa(lp1704
I0
aI0
aI3
aI4
aI0
aI1
aa(lp1705
I1
aI0
aI5
aI6
aI0
aI1
aa(lp1706
I3
aI0
aI2
aI6
aI1
aI2
aa(lp1707
I0
aI0
aI2
aI4
aI0
aI1
aa(lp1708
I1
aI0
aI5
aI6
aI1
aI0
aa(lp1709
I2
aI2
aI3
aI4
aI0
aI1
aa(lp1710
I2
aI3
aI3
aI6
aI1
aI1
aa(lp1711
I2
aI3
aI5
aI6
aI0
aI1
aa(lp1712
I1
aI2
aI5
aI4
aI0
aI1
aa(lp1713
I3
aI3
aI3
aI4
aI2
aI2
aa(lp1714
I1
aI2
aI4
aI6
aI0
aI0
aa(lp1715
I1
aI3
aI4
aI6
aI0
aI0
aa(lp1716
I0
aI3
aI3
aI4
aI2
aI0
aa(lp1717
I1
aI2
aI3
aI6
aI1
aI2
aa(lp1718
I0
aI1
aI5
aI2
aI1
aI0
aa(lp1719
I2
aI0
aI5
aI2
aI2
aI0
aa(lp1720
I3
aI2
aI4
aI2
aI0
aI2
aa(lp1721
I1
aI3
aI2
aI4
aI2
aI1
aa(lp1722
I0
aI2
aI3
aI6
aI1
aI0
aa(lp1723
I1
aI2
aI2
aI2
aI0
aI1
aa(lp1724
I0
aI0
aI2
aI2
aI1
aI1
aa(lp1725
I0
aI2
aI5
aI2
aI2
aI1
aa(lp1726
I1
aI0
aI3
aI6
aI0
aI1
aa(lp1727
I2
aI2
aI5
aI6
aI1
aI0
aa(lp1728
I0
aI0
aI2
aI6
aI1
aI2
aa(lp1729
I2
aI2
aI4
aI6
aI0
aI1
aa(lp1730
I2
aI0
aI5
aI6
aI0
aI0
aa(lp1731
I1
aI1
aI2
aI6
aI0
aI2
aaa(lp1732
g1555
ag1556
ag1556
ag1555
ag1555
ag1555
ag1556
ag1555
ag1555
ag1555
ag1557
ag1555
ag1555
ag1555
ag1556
ag1557
ag1555
ag1555
ag1555
ag1556
ag1556
ag1555
ag1555
ag1555
ag1557
ag1555
ag1555
ag1555
ag1555
ag1556
ag1556
ag1555
ag1555
ag1555
ag1555
ag1555
ag1556
ag1555
ag1555
ag1555
ag1556
ag1555
ag1555
ag1555
ag1555
ag1555
ag1555
ag1556
ag1555
ag1555
ag1555
ag1556
ag1555
ag1557
ag1555
ag1555
ag1555
ag1555
ag1555
ag1555
ag1556
ag1556
ag1555
ag1555
ag1556
ag1555
ag1556
ag1556
ag1556
ag1555
ag1556
ag1556
ag1555
ag1555
ag1555
ag1555
ag1555
ag1556
ag1558
ag1555
ag1555
ag1556
ag1556
ag1558
ag1555
ag1555
ag1555
ag1555
ag1555
ag1555
ag1556
ag1555
ag1555
ag1556
ag1555
ag1555
ag1555
ag1555
ag1555
ag1556
ag1555
ag1555
ag1555
ag1555
ag1556
ag1555
ag1555
ag1556
ag1555
ag1556
ag1555
ag1555
ag1557
ag1556
ag1555
ag1555
ag1555
ag1555
ag1555
ag1556
ag1555
ag1555
ag1556
ag1555
ag1555
ag1555
ag1555
ag1555
ag1556
ag1555
ag1555
ag1555
ag1555
ag1556
ag1555
ag1555
ag1555
ag1555
ag1558
ag1556
ag1555
ag1556
ag1555
ag1555
ag1556
ag1556
ag1556
ag1556
ag1555
ag1555
ag1555
ag1555
ag1555
ag1555
ag1555
ag1555
ag1555
ag1556
ag1555
ag1555
ag1555
ag1556
ag1555
ag1555
ag1555
ag1555
ag1556
ag1555
ag1557
ag1555
ag1555
ag1555
aa.